
Optional file vector_offset_init.o not found
Archive member included to satisfy reference by file (symbol)

c:/program files/microchip/xc32/v4.30/bin/bin/../../lib/gcc/pic32mx/8.3.1/../../../../pic32mx/lib/fpu64\libpic32.a(memcpy.o)
                              build/default/debug/_ext/60179596/plib_ram.o (memcpy)
c:/program files/microchip/xc32/v4.30/bin/bin/../../lib/gcc/pic32mx/8.3.1/../../../../pic32mx/lib/fpu64\libpic32.a(memset.o)
                              build/default/debug/usb_uart.o (memset)
c:/program files/microchip/xc32/v4.30/bin/bin/../../lib/gcc/pic32mx/8.3.1/../../../../pic32mx/lib/fpu64\libpic32.a(strcmp.o)
                              build/default/debug/usb_uart.o (strcmp)
c:/program files/microchip/xc32/v4.30/bin/bin/../../lib/gcc/pic32mx/8.3.1/../../../../pic32mx/lib/fpu64\libpic32.a(strcpy.o)
                              build/default/debug/usb_uart.o (strcpy)
c:/program files/microchip/xc32/v4.30/bin/bin/../../lib/gcc/pic32mx/8.3.1/../../../../pic32mx/lib/fpu64\libpic32.a(strlen.o)
                              build/default/debug/_ext/1360937237/main.o (strlen)
c:/program files/microchip/xc32/v4.30/bin/bin/../../lib/gcc/pic32mx/8.3.1/../../../../pic32mx/lib/fpu64\libpic32.a(default-on-reset.o)
                              C:\Users\drewm\AppData\Local\Temp\ccEOzkaJ.o (_on_reset)
c:/program files/microchip/xc32/v4.30/bin/bin/../../lib/gcc/pic32mx/8.3.1/../../../../pic32mx/lib/fpu64\libpic32.a(default-on-bootstrap.o)
                              C:\Users\drewm\AppData\Local\Temp\ccEOzkaJ.o (_on_bootstrap)
c:/program files/microchip/xc32/v4.30/bin/bin/../../lib/gcc/pic32mx/8.3.1/../../../../pic32mx/lib/fpu64\libpic32.a(default-nmi-handler.o)
                              C:\Users\drewm\AppData\Local\Temp\ccEOzkaJ.o (_nmi_handler)
c:/program files/microchip/xc32/v4.30/bin/bin/../../lib/gcc/pic32mx/8.3.1/../../../../pic32mx/lib/fpu64\libpic32.a(pic32_data_init_core.o)
                              C:\Users\drewm\AppData\Local\Temp\ccEOzkaJ.o (__pic32_data_init)
c:/program files/microchip/xc32/v4.30/bin/bin/../../lib/gcc/pic32mx/8.3.1/../../../../pic32mx/lib/fpu64\libpic32.a(pic32_init_cache.o)
                              C:\Users\drewm\AppData\Local\Temp\ccEOzkaJ.o (__pic32_init_cache)
c:/program files/microchip/xc32/v4.30/bin/bin/../../lib/gcc/pic32mx/8.3.1/../../../../pic32mx/lib/fpu64\libpic32.a(pic32_init_tlb_ebi_sqi.o)
                              C:\Users\drewm\AppData\Local\Temp\ccEOzkaJ.o (__pic32_tlb_init_ebi_sqi)
c:/program files/microchip/xc32/v4.30/bin/bin/../../lib/gcc/pic32mx/8.3.1/../../../../pic32mx/lib/fpu64\libpic32.a(general-exception.o)
                              C:\Users\drewm\AppData\Local\Temp\ccEOzkaJ.o (_general_exception_context)
c:/program files/microchip/xc32/v4.30/bin/bin/../../lib/gcc/pic32mx/8.3.1/../../../../pic32mx/lib/fpu64\libpic32.a(cache-err-exception.o)
                              C:\Users\drewm\AppData\Local\Temp\ccEOzkaJ.o (_cache_err_exception_context)
c:/program files/microchip/xc32/v4.30/bin/bin/../../lib/gcc/pic32mx/8.3.1/../../../../pic32mx/lib/fpu64\libpic32.a(simple-tlb-refill-exception.o)
                              C:\Users\drewm\AppData\Local\Temp\ccEOzkaJ.o (_simple_tlb_refill_exception_context)
c:/program files/microchip/xc32/v4.30/bin/bin/../../lib/gcc/pic32mx/8.3.1/../../../../pic32mx/lib/fpu64\libpic32.a(defaultinterrupt.o)
                              C:\Users\drewm\AppData\Local\Temp\ccR2QC0V.o (_DefaultInterrupt)
c:/program files/microchip/xc32/v4.30/bin/bin/../../lib/gcc/pic32mx/8.3.1/../../../../pic32mx/lib/fpu64\libc-musl.a(exit.o)
                              build/default/debug/usb_uart.o (exit)
c:/program files/microchip/xc32/v4.30/bin/bin/../../lib/gcc/pic32mx/8.3.1/../../../../pic32mx/lib/fpu64\libc-musl.a(malloc.o)
                              build/default/debug/usb_uart.o (free)
c:/program files/microchip/xc32/v4.30/bin/bin/../../lib/gcc/pic32mx/8.3.1/../../../../pic32mx/lib/fpu64\libc-musl.a(expand_heap.o)
                              c:/program files/microchip/xc32/v4.30/bin/bin/../../lib/gcc/pic32mx/8.3.1/../../../../pic32mx/lib/fpu64\libc-musl.a(malloc.o) (__expand_heap)
c:/program files/microchip/xc32/v4.30/bin/bin/../../lib/gcc/pic32mx/8.3.1/../../../../pic32mx/lib/fpu64\libc-musl.a(printf.o)
                              build/default/debug/terminal_control.o (printf)
c:/program files/microchip/xc32/v4.30/bin/bin/../../lib/gcc/pic32mx/8.3.1/../../../../pic32mx/lib/fpu64\libc-musl.a(puts.o)
                              build/default/debug/_ext/1360937237/main.o (puts)
c:/program files/microchip/xc32/v4.30/bin/bin/../../lib/gcc/pic32mx/8.3.1/../../../../pic32mx/lib/fpu64\libc-musl.a(sprintf.o)
                              (sprintf)
c:/program files/microchip/xc32/v4.30/bin/bin/../../lib/gcc/pic32mx/8.3.1/../../../../pic32mx/lib/fpu64\libc-musl.a(vsprintf.o)
                              c:/program files/microchip/xc32/v4.30/bin/bin/../../lib/gcc/pic32mx/8.3.1/../../../../pic32mx/lib/fpu64\libc-musl.a(sprintf.o) (vsprintf)
c:/program files/microchip/xc32/v4.30/bin/bin/../../lib/gcc/pic32mx/8.3.1/../../../../pic32mx/lib/fpu64\libc-musl.a(strcat.o)
                              build/default/debug/usb_uart.o (strcat)
c:/program files/microchip/xc32/v4.30/bin/bin/../../lib/gcc/pic32mx/8.3.1/../../../../pic32mx/lib/fpu64\libc-musl.a(strncpy.o)
                              build/default/debug/terminal_control.o (strncpy)
c:/program files/microchip/xc32/v4.30/bin/bin/../../lib/gcc/pic32mx/8.3.1/../../../../pic32mx/lib/fpu64\libc-musl.a(strtok.o)
                              build/default/debug/usb_uart.o (strtok)
c:/program files/microchip/xc32/v4.30/bin/bin/../../lib/gcc/pic32mx/8.3.1/../../../../pic32mx/lib/fpu64\libc-musl.a(_Exit.o)
                              c:/program files/microchip/xc32/v4.30/bin/bin/../../lib/gcc/pic32mx/8.3.1/../../../../pic32mx/lib/fpu64\libc-musl.a(exit.o) (_Exit)
c:/program files/microchip/xc32/v4.30/bin/bin/../../lib/gcc/pic32mx/8.3.1/../../../../pic32mx/lib/fpu64\libc-musl.a(libc.o)
                              c:/program files/microchip/xc32/v4.30/bin/bin/../../lib/gcc/pic32mx/8.3.1/../../../../pic32mx/lib/fpu64\libc-musl.a(malloc.o) (__libc)
c:/program files/microchip/xc32/v4.30/bin/bin/../../lib/gcc/pic32mx/8.3.1/../../../../pic32mx/lib/fpu64\libc-musl.a(fputs.o)
                              c:/program files/microchip/xc32/v4.30/bin/bin/../../lib/gcc/pic32mx/8.3.1/../../../../pic32mx/lib/fpu64\libc-musl.a(puts.o) (fputs)
c:/program files/microchip/xc32/v4.30/bin/bin/../../lib/gcc/pic32mx/8.3.1/../../../../pic32mx/lib/fpu64\libc-musl.a(fwrite.o)
                              c:/program files/microchip/xc32/v4.30/bin/bin/../../lib/gcc/pic32mx/8.3.1/../../../../pic32mx/lib/fpu64\libc-musl.a(fputs.o) (fwrite)
c:/program files/microchip/xc32/v4.30/bin/bin/../../lib/gcc/pic32mx/8.3.1/../../../../pic32mx/lib/fpu64\libc-musl.a(putc.o)
                              c:/program files/microchip/xc32/v4.30/bin/bin/../../lib/gcc/pic32mx/8.3.1/../../../../pic32mx/lib/fpu64\libc-musl.a(puts.o) (putc_unlocked)
c:/program files/microchip/xc32/v4.30/bin/bin/../../lib/gcc/pic32mx/8.3.1/../../../../pic32mx/lib/fpu64\libc-musl.a(vfprintf.o)
                              c:/program files/microchip/xc32/v4.30/bin/bin/../../lib/gcc/pic32mx/8.3.1/../../../../pic32mx/lib/fpu64\libc-musl.a(printf.o) (vfprintf)
c:/program files/microchip/xc32/v4.30/bin/bin/../../lib/gcc/pic32mx/8.3.1/../../../../pic32mx/lib/fpu64\libc-musl.a(vsnprintf.o)
                              c:/program files/microchip/xc32/v4.30/bin/bin/../../lib/gcc/pic32mx/8.3.1/../../../../pic32mx/lib/fpu64\libc-musl.a(vsprintf.o) (vsnprintf)
c:/program files/microchip/xc32/v4.30/bin/bin/../../lib/gcc/pic32mx/8.3.1/../../../../pic32mx/lib/fpu64\libc-musl.a(stdout.o)
                              c:/program files/microchip/xc32/v4.30/bin/bin/../../lib/gcc/pic32mx/8.3.1/../../../../pic32mx/lib/fpu64\libc-musl.a(printf.o) (_stdout)
c:/program files/microchip/xc32/v4.30/bin/bin/../../lib/gcc/pic32mx/8.3.1/../../../../pic32mx/lib/fpu64\libc-musl.a(stpncpy.o)
                              c:/program files/microchip/xc32/v4.30/bin/bin/../../lib/gcc/pic32mx/8.3.1/../../../../pic32mx/lib/fpu64\libc-musl.a(strncpy.o) (__stpncpy)
c:/program files/microchip/xc32/v4.30/bin/bin/../../lib/gcc/pic32mx/8.3.1/../../../../pic32mx/lib/fpu64\libc-musl.a(strcspn.o)
                              c:/program files/microchip/xc32/v4.30/bin/bin/../../lib/gcc/pic32mx/8.3.1/../../../../pic32mx/lib/fpu64\libc-musl.a(strtok.o) (strcspn)
c:/program files/microchip/xc32/v4.30/bin/bin/../../lib/gcc/pic32mx/8.3.1/../../../../pic32mx/lib/fpu64\libc-musl.a(strspn.o)
                              c:/program files/microchip/xc32/v4.30/bin/bin/../../lib/gcc/pic32mx/8.3.1/../../../../pic32mx/lib/fpu64\libc-musl.a(strtok.o) (strspn)
c:/program files/microchip/xc32/v4.30/bin/bin/../../lib/gcc/pic32mx/8.3.1/../../../../pic32mx/lib/fpu64\libc-musl.a(__io_fmt_needed.o)
                              c:/program files/microchip/xc32/v4.30/bin/bin/../../lib/gcc/pic32mx/8.3.1/../../../../pic32mx/lib/fpu64\libc-musl.a(vfprintf.o) (__io_fmt_needed)
c:/program files/microchip/xc32/v4.30/bin/bin/../../lib/gcc/pic32mx/8.3.1/../../../../pic32mx/lib/fpu64\libc-musl.a(__io_init_needed.o)
                              c:/program files/microchip/xc32/v4.30/bin/bin/../../lib/gcc/pic32mx/8.3.1/../../../../pic32mx/lib/fpu64\libc-musl.a(stdout.o) (__io_init_needed)
c:/program files/microchip/xc32/v4.30/bin/bin/../../lib/gcc/pic32mx/8.3.1/../../../../pic32mx/lib/fpu64\libc-musl.a(__out.o)
                              c:/program files/microchip/xc32/v4.30/bin/bin/../../lib/gcc/pic32mx/8.3.1/../../../../pic32mx/lib/fpu64\libc-musl.a(stdout.o) (__stdio_write_unbuffered)
c:/program files/microchip/xc32/v4.30/bin/bin/../../lib/gcc/pic32mx/8.3.1/../../../../pic32mx/lib/fpu64\libc-musl.a(__pop_float.o)
                              c:/program files/microchip/xc32/v4.30/bin/bin/../../lib/gcc/pic32mx/8.3.1/../../../../pic32mx/lib/fpu64\libc-musl.a(__io_fmt_needed.o) (__pop_float_needed)
c:/program files/microchip/xc32/v4.30/bin/bin/../../lib/gcc/pic32mx/8.3.1/../../../../pic32mx/lib/fpu64\libc-musl.a(__pop_int.o)
                              c:/program files/microchip/xc32/v4.30/bin/bin/../../lib/gcc/pic32mx/8.3.1/../../../../pic32mx/lib/fpu64\libc-musl.a(__io_fmt_needed.o) (__pop_int_needed)
c:/program files/microchip/xc32/v4.30/bin/bin/../../lib/gcc/pic32mx/8.3.1/../../../../pic32mx/lib/fpu64\libc-musl.a(__pop_ptr.o)
                              c:/program files/microchip/xc32/v4.30/bin/bin/../../lib/gcc/pic32mx/8.3.1/../../../../pic32mx/lib/fpu64\libc-musl.a(__io_fmt_needed.o) (__pop_ptr_needed)
c:/program files/microchip/xc32/v4.30/bin/bin/../../lib/gcc/pic32mx/8.3.1/../../../../pic32mx/lib/fpu64\libc-musl.a(__printf_core.o)
                              c:/program files/microchip/xc32/v4.30/bin/bin/../../lib/gcc/pic32mx/8.3.1/../../../../pic32mx/lib/fpu64\libc-musl.a(vfprintf.o) (__printf_core)
c:/program files/microchip/xc32/v4.30/bin/bin/../../lib/gcc/pic32mx/8.3.1/../../../../pic32mx/lib/fpu64\libc-musl.a(__stdio_close.o)
                              c:/program files/microchip/xc32/v4.30/bin/bin/../../lib/gcc/pic32mx/8.3.1/../../../../pic32mx/lib/fpu64\libc-musl.a(stdout.o) (__stdio_close_rw)
c:/program files/microchip/xc32/v4.30/bin/bin/../../lib/gcc/pic32mx/8.3.1/../../../../pic32mx/lib/fpu64\libc-musl.a(atoi.o)
                              c:/program files/microchip/xc32/v4.30/bin/bin/../../lib/gcc/pic32mx/8.3.1/../../../../pic32mx/lib/fpu64\libc-musl.a(__printf_core.o) (atoi)
c:/program files/microchip/xc32/v4.30/bin/bin/../../lib/gcc/pic32mx/8.3.1/../../../../pic32mx/lib/fpu64\libc-musl.a(strchrnul.o)
                              c:/program files/microchip/xc32/v4.30/bin/bin/../../lib/gcc/pic32mx/8.3.1/../../../../pic32mx/lib/fpu64\libc-musl.a(strcspn.o) (__strchrnul)
c:/program files/microchip/xc32/v4.30/bin/bin/../../lib/gcc/pic32mx/8.3.1/../../../../pic32mx/lib/fpu64\libc-musl.a(tolower.o)
                              c:/program files/microchip/xc32/v4.30/bin/bin/../../lib/gcc/pic32mx/8.3.1/../../../../pic32mx/lib/fpu64\libc-musl.a(__printf_core.o) (tolower)
c:/program files/microchip/xc32/v4.30/bin/bin/../../lib/gcc/pic32mx/8.3.1/../../../../pic32mx/lib/fpu64\libc-musl.a(__fmt_a.o)
                              c:/program files/microchip/xc32/v4.30/bin/bin/../../lib/gcc/pic32mx/8.3.1/../../../../pic32mx/lib/fpu64\libc-musl.a(__io_fmt_needed.o) (__fmt_a_needed)
c:/program files/microchip/xc32/v4.30/bin/bin/../../lib/gcc/pic32mx/8.3.1/../../../../pic32mx/lib/fpu64\libc-musl.a(__fmt_d.o)
                              c:/program files/microchip/xc32/v4.30/bin/bin/../../lib/gcc/pic32mx/8.3.1/../../../../pic32mx/lib/fpu64\libc-musl.a(__io_fmt_needed.o) (__fmt_d_needed)
c:/program files/microchip/xc32/v4.30/bin/bin/../../lib/gcc/pic32mx/8.3.1/../../../../pic32mx/lib/fpu64\libc-musl.a(__fmt_fp.o)
                              c:/program files/microchip/xc32/v4.30/bin/bin/../../lib/gcc/pic32mx/8.3.1/../../../../pic32mx/lib/fpu64\libc-musl.a(__io_fmt_needed.o) (__fmt_f_needed)
c:/program files/microchip/xc32/v4.30/bin/bin/../../lib/gcc/pic32mx/8.3.1/../../../../pic32mx/lib/fpu64\libc-musl.a(__fmt_o.o)
                              c:/program files/microchip/xc32/v4.30/bin/bin/../../lib/gcc/pic32mx/8.3.1/../../../../pic32mx/lib/fpu64\libc-musl.a(__io_fmt_needed.o) (__fmt_o_needed)
c:/program files/microchip/xc32/v4.30/bin/bin/../../lib/gcc/pic32mx/8.3.1/../../../../pic32mx/lib/fpu64\libc-musl.a(__fmt_s.o)
                              c:/program files/microchip/xc32/v4.30/bin/bin/../../lib/gcc/pic32mx/8.3.1/../../../../pic32mx/lib/fpu64\libc-musl.a(__io_fmt_needed.o) (__fmt_s_needed)
c:/program files/microchip/xc32/v4.30/bin/bin/../../lib/gcc/pic32mx/8.3.1/../../../../pic32mx/lib/fpu64\libc-musl.a(__fmt_u.o)
                              c:/program files/microchip/xc32/v4.30/bin/bin/../../lib/gcc/pic32mx/8.3.1/../../../../pic32mx/lib/fpu64\libc-musl.a(__io_fmt_needed.o) (__fmt_u_needed)
c:/program files/microchip/xc32/v4.30/bin/bin/../../lib/gcc/pic32mx/8.3.1/../../../../pic32mx/lib/fpu64\libc-musl.a(__fmt_x.o)
                              c:/program files/microchip/xc32/v4.30/bin/bin/../../lib/gcc/pic32mx/8.3.1/../../../../pic32mx/lib/fpu64\libc-musl.a(__io_fmt_needed.o) (__fmt_x_needed)
c:/program files/microchip/xc32/v4.30/bin/bin/../../lib/gcc/pic32mx/8.3.1/../../../../pic32mx/lib/fpu64\libc-musl.a(__init_stdio.o)
                              c:/program files/microchip/xc32/v4.30/bin/bin/../../lib/gcc/pic32mx/8.3.1/../../../../pic32mx/lib/fpu64\libc-musl.a(__io_init_needed.o) (__init_stdio_needed)
c:/program files/microchip/xc32/v4.30/bin/bin/../../lib/gcc/pic32mx/8.3.1/../../../../pic32mx/lib/fpu64\libc-musl.a(__io_file_needed.o)
                              c:/program files/microchip/xc32/v4.30/bin/bin/../../lib/gcc/pic32mx/8.3.1/../../../../pic32mx/lib/fpu64\libc-musl.a(__io_init_needed.o) (__io_file_needed)
c:/program files/microchip/xc32/v4.30/bin/bin/../../lib/gcc/pic32mx/8.3.1/../../../../pic32mx/lib/fpu64\libc-musl.a(toupper.o)
                              c:/program files/microchip/xc32/v4.30/bin/bin/../../lib/gcc/pic32mx/8.3.1/../../../../pic32mx/lib/fpu64\libc-musl.a(__fmt_a.o) (toupper)
c:/program files/microchip/xc32/v4.30/bin/bin/../../lib/gcc/pic32mx/8.3.1/../../../../pic32mx/lib/fpu64\libc-musl.a(__cvt_u.o)
                              c:/program files/microchip/xc32/v4.30/bin/bin/../../lib/gcc/pic32mx/8.3.1/../../../../pic32mx/lib/fpu64\libc-musl.a(__fmt_d.o) (__cvt_u)
c:/program files/microchip/xc32/v4.30/bin/bin/../../lib/gcc/pic32mx/8.3.1/../../../../pic32mx/lib/fpu64\libm-musl.a(floor.o)
                              c:/program files/microchip/xc32/v4.30/bin/bin/../../lib/gcc/pic32mx/8.3.1/../../../../pic32mx/lib/fpu64\libc-musl.a(__fmt_a.o) (floor)
c:/program files/microchip/xc32/v4.30/bin/bin/../../lib/gcc/pic32mx/8.3.1/../../../../pic32mx/lib/fpu64\libm-musl.a(fma.o)
                              c:/program files/microchip/xc32/v4.30/bin/bin/../../lib/gcc/pic32mx/8.3.1/../../../../pic32mx/lib/fpu64\libc-musl.a(__fmt_fp.o) (fma)
c:/program files/microchip/xc32/v4.30/bin/bin/../../lib/gcc/pic32mx/8.3.1/../../../../pic32mx/lib/fpu64\libm-musl.a(scalbn.o)
                              c:/program files/microchip/xc32/v4.30/bin/bin/../../lib/gcc/pic32mx/8.3.1/../../../../pic32mx/lib/fpu64\libm-musl.a(fma.o) (scalbn)
c:/program files/microchip/xc32/v4.30/bin/bin/../../lib/gcc/pic32mx/8.3.1/fpu64\libgcc.a(_lshrdi3.o)
                              c:/program files/microchip/xc32/v4.30/bin/bin/../../lib/gcc/pic32mx/8.3.1/../../../../pic32mx/lib/fpu64\libc-musl.a(malloc.o) (__lshrdi3)
c:/program files/microchip/xc32/v4.30/bin/bin/../../lib/gcc/pic32mx/8.3.1/fpu64\libgcc.a(_ashldi3.o)
                              c:/program files/microchip/xc32/v4.30/bin/bin/../../lib/gcc/pic32mx/8.3.1/../../../../pic32mx/lib/fpu64\libc-musl.a(malloc.o) (__ashldi3)
c:/program files/microchip/xc32/v4.30/bin/bin/../../lib/gcc/pic32mx/8.3.1/fpu64\libgcc.a(_udivdi3.o)
                              c:/program files/microchip/xc32/v4.30/bin/bin/../../lib/gcc/pic32mx/8.3.1/../../../../pic32mx/lib/fpu64\libc-musl.a(__cvt_u.o) (__udivdi3)
c:/program files/microchip/xc32/v4.30/bin/bin/../../lib/gcc/pic32mx/8.3.1/fpu64\libgcc.a(_umoddi3.o)
                              c:/program files/microchip/xc32/v4.30/bin/bin/../../lib/gcc/pic32mx/8.3.1/../../../../pic32mx/lib/fpu64\libc-musl.a(__cvt_u.o) (__umoddi3)
c:/program files/microchip/xc32/v4.30/bin/bin/../../lib/gcc/pic32mx/8.3.1/../../../../pic32mx/lib/fpu64\libpic32.a(sbrk.o)
                              c:/program files/microchip/xc32/v4.30/bin/bin/../../lib/gcc/pic32mx/8.3.1/../../../../pic32mx/lib/fpu64\libc-musl.a(expand_heap.o) (_sbrk)
c:/program files/microchip/xc32/v4.30/bin/bin/../../lib/gcc/pic32mx/8.3.1/../../../../pic32mx/lib/fpu64\libpic32.a(_exit.o)
                              c:/program files/microchip/xc32/v4.30/bin/bin/../../lib/gcc/pic32mx/8.3.1/../../../../pic32mx/lib/fpu64\libc-musl.a(_Exit.o) (_exit)
c:/program files/microchip/xc32/v4.30/bin/bin/../../lib/gcc/pic32mx/8.3.1/../../../../pic32mx/lib/fpu64\libpic32.a(lseek.o)
                              c:/program files/microchip/xc32/v4.30/bin/bin/../../lib/gcc/pic32mx/8.3.1/../../../../pic32mx/lib/fpu64\libc-musl.a(__stdio_close.o) (lseek)
c:/program files/microchip/xc32/v4.30/bin/bin/../../lib/gcc/pic32mx/8.3.1/../../../../pic32mx/lib/fpu64\libpic32.a(close.o)
                              c:/program files/microchip/xc32/v4.30/bin/bin/../../lib/gcc/pic32mx/8.3.1/../../../../pic32mx/lib/fpu64\libc-musl.a(__stdio_close.o) (close)
c:/program files/microchip/xc32/v4.30/bin/bin/../../lib/gcc/pic32mx/8.3.1/../../../../pic32mx/lib/fpu64\libpic32.a(errno.o)
                              c:/program files/microchip/xc32/v4.30/bin/bin/../../lib/gcc/pic32mx/8.3.1/../../../../pic32mx/lib/fpu64\libc-musl.a(malloc.o) (errno)

Optional file vector_offset_init.o not found
c:/program files/microchip/xc32/v4.30/bin/bin/../../lib/gcc/pic32mx/8.3.1/../../../../pic32mx/lib/fpu64\libpic32.a(pic32_data_init_clear.o)
                              (__dinit_clear_needed)
c:/program files/microchip/xc32/v4.30/bin/bin/../../lib/gcc/pic32mx/8.3.1/../../../../pic32mx/lib/fpu64\libpic32.a(pic32_data_init_copy.o)
                              (__dinit_copy_needed)

Microchip PIC32 Memory-Usage Report

kseg0 Program-Memory Usage
section                    address  length [bytes]      (dec)  Description
-------                 ----------  -------------------------  -----------
.simple_tlb_refill_excp 0x9d000000           0x10          16   
.text.terminalTextAttri 0x9d000010           0xec         236   
.rodata.terminalSetCurs 0x9d0000fc            0x4           4   
.cache_err_excpt        0x9d000100           0x10          16   
.text.UART3_FAULT_Inter 0x9d000110           0x70         112   
.app_excpt              0x9d000180           0x10          16  General-Exception 
.text.alloc_fwd         0x9d000190           0x70         112   
.vectors                0x9d000200           0x90         144   
.text.__fmt_fp          0x9d000290          0x6cc        1740   
.text.fma               0x9d00095c          0x678        1656   
.text.usbUartAddCommand 0x9d000fd4          0x668        1640   
.text.__fmt_a           0x9d00163c          0x624        1572   
.text.__printf_core     0x9d001c60          0x5a4        1444   
.text.I2C5_MASTER_Inter 0x9d002204          0x558        1368   
.dinit                  0x9d00275c          0x4fc        1276   
.text                   0x9d002c58          0x774        1908  App's exec code 
.text.malloc            0x9d0033cc          0x298         664   
.text.__fmt_x           0x9d003664          0x200         512   
.text.DMA0_Handler      0x9d003864          0x1d0         464   
.text.DMA1_Handler      0x9d003a34          0x1d0         464   
.text.UART3_FAULT_Handl 0x9d003c04          0x1d0         464   
.text.UART3_RX_Handler  0x9d003dd4          0x1d0         464   
.text.UART3_TX_Handler  0x9d003fa4          0x1d0         464   
.text.RTCC_Handler      0x9d004174          0x1d0         464   
.text.I2C5_BUS_Handler  0x9d004344          0x1d0         464   
.text.I2C5_MASTER_Handl 0x9d004514          0x1d0         464   
.text.CORE_TIMER_Handle 0x9d0046e4          0x1b8         440   
.text                   0x9d00489c          0x1a0         416  App's exec code 
.text.free              0x9d004a3c          0x198         408   
.text.__pop_int         0x9d004bd4          0x188         392   
.text                   0x9d004d5c          0x2d0         720  App's exec code 
.rodata.helpCommandFunc 0x9d00502c          0x164         356   
.text._sbrk_init        0x9d005190          0x154         340   
.text.__fmt_d           0x9d0052e4          0x150         336   
.text.DMA1_InterruptHan 0x9d005434          0x14c         332   
.text.DMA0_InterruptHan 0x9d005580          0x148         328   
.text.helpCommandFuncti 0x9d0056c8          0x148         328   
.text.usbUartRxLUTInter 0x9d005810          0x13c         316   
.text.__cvt_u           0x9d00594c          0x13c         316   
.text.CLK_Initialize    0x9d005a88          0x134         308   
.text.UART3_RX_Interrup 0x9d005bbc          0x128         296   
.text.UART3_TX_Interrup 0x9d005ce4          0x128         296   
.text.usbUartTrasmitDma 0x9d005e0c          0x120         288   
.text                   0x9d005f2c          0x120         288  App's exec code 
.text.GPIO_Initialize   0x9d00604c          0x11c         284   
.text.__pad             0x9d006168          0x100         256   
.text.usbUartReceiveDma 0x9d006268           0xfc         252   
.text.__fmt_o           0x9d006364           0xf4         244   
.text.__pop_ptr         0x9d006458           0xe4         228   
.text.general_exception 0x9d00653c           0xdc         220   
.text._cache_err_except 0x9d006618           0xd8         216   
.text.simple_tlb_refill 0x9d0066f0           0xd8         216   
.text.strcspn           0x9d0067c8           0xd8         216   
.text.strspn            0x9d0068a0           0xd8         216   
.text.__stdio_close_rw  0x9d006978           0xc0         192   
.text.__strchrnul       0x9d006a38           0xc0         192   
.tlb.__pic32_tlb_init_e 0x9d006af8           0xbc         188   
.text.__fmt_u           0x9d006bb4           0xbc         188   
.text.main              0x9d006c70           0xb4         180   
.text.RTCC_Initialize   0x9d006d24           0xb4         180   
.text.floor             0x9d006dd8           0xb4         180   
.text._sbrk             0x9d006e8c           0xb0         176   
.text.unbin             0x9d006f3c           0xac         172   
.text.CORE_TIMER_Interr 0x9d006fe8           0xa8         168   
.text                   0x9d007090           0xa8         168  App's exec code 
.text.strtok            0x9d007138           0xa4         164   
.text.__fmt_s           0x9d0071dc           0xa4         164   
.text.DMAC_Initialize   0x9d007280           0x9c         156   
.text.usbUartInitialize 0x9d00731c           0x9c         156   
.rodata.usbUartHashTabl 0x9d0073b8           0x98         152   
.text.EVIC_Initialize   0x9d007450           0x90         144   
.text.SYS_Initialize    0x9d0074e0           0x90         144   
.text.__out             0x9d007570           0x8c         140   
.text.normalize         0x9d0075fc           0x8c         140   
.text.scalbn            0x9d007688           0x8c         140   
.text.UART3_Initialize  0x9d007714           0x88         136   
.text                   0x9d00779c           0x7c         124  App's exec code 
.text.atoi              0x9d007818           0x7c         124   
.text.UART3_ErrorClear  0x9d007894           0x74         116   
.text.alloc_rev         0x9d007908           0x74         116   
.text.CORETIMER_Start   0x9d00797c           0x6c         108   
.text.I2C5_Initialize   0x9d0079e8           0x6c         108   
.text.I2C5_BUS_Interrup 0x9d007a54           0x6c         108   
.text.a_clz_64          0x9d007ac0           0x6c         108   
.text.HEARTBEAT_TIMER_H 0x9d007b2c           0x68         104   
.text.usbUartHashTableI 0x9d007b94           0x68         104   
.text.bin_index         0x9d007bfc           0x60          96   
.text.fwrite            0x9d007c5c           0x60          96   
.text.__putc_unbuffered 0x9d007cbc           0x60          96   
.text.libc_exit_fini    0x9d007d1c           0x5c          92   
.rodata                 0x9d007d78           0x5c          92  Read-only const 
.text.fputs             0x9d007dd4           0x5c          92   
.text.usbUartTxDmaHandl 0x9d007e30           0x58          88   
.text.adjust_size       0x9d007e88           0x58          88   
.text.trim              0x9d007ee0           0x58          88   
.text.__fmt_state       0x9d007f38           0x58          88   
.text.main_entry        0x9d007f90           0x54          84   
.text.SYS_RESET_Softwar 0x9d007fe4           0x4c          76   
.text.puts              0x9d008030           0x4c          76   
.text.stpncpy           0x9d00807c           0x4c          76   
.text.DMAC_ChannelPatte 0x9d0080c8           0x48          72   
.text.__pop_float       0x9d008110           0x48          72   
.text.CORETIMER_Initial 0x9d008158           0x44          68   
.text                   0x9d00819c           0x44          68  App's exec code 
.text.RTCC_InterruptHan 0x9d0081e0           0x3c          60   
.text.strcomp           0x9d00821c           0x3c          60   
.text.__expand_heap     0x9d008258           0x3c          60   
.text.printf            0x9d008294           0x3c          60   
.text.vfprintf          0x9d0082d0           0x3c          60   
.text                   0x9d00830c           0x78         120  App's exec code 
.text.strcat            0x9d008384           0x38          56   
.text.usbUartRxDmaHandl 0x9d0083bc           0x34          52   
.text.lock_bin          0x9d0083f0           0x34          52   
.text.exit              0x9d008424           0x2c          44   
.text._stub_sbd_memlayo 0x9d008450           0x2c          44   
.text._general_exceptio 0x9d00847c           0x28          40   
.text._bootstrap_except 0x9d0084a4           0x28          40   
.text._cache_err_except 0x9d0084cc           0x28          40   
.text._simple_tlb_refil 0x9d0084f4           0x28          40   
.text.strncpy           0x9d00851c           0x28          40   
.rodata.terminalTextAtt 0x9d008544            0x4           4   
.rodata.cst8            0x9d008548           0x28          40   
.text.clearCommand      0x9d008570           0x24          36   
.text.DMAC_ChannelCallb 0x9d008594           0x20          32   
.rodata.usbUartRxLUTInt 0x9d0085b4           0x20          32   
.text.terminalClearScre 0x9d0085d4           0x20          32   
.text.terminalSetCursor 0x9d0085f4           0x20          32   
.text.terminalTextAttri 0x9d008614           0x20          32   
.text.__fwrite_min      0x9d008634           0x40          64   
.rodata.cst8            0x9d008678           0x40          64   
.text                   0x9d0086b8           0x20          32  App's exec code 
.text.WDT_Enable        0x9d0086d8           0x1c          28   
.text.resetCommand      0x9d0086f4           0x1c          28   
.text.putc              0x9d008710           0x1c          28   
.text.tolower           0x9d00872c           0x1c          28   
.text.toupper           0x9d008748           0x1c          28   
.MIPS.abiflags          0x9d008768           0x18          24   
.text.CORETIMER_Callbac 0x9d008780           0x18          24   
.text.WDT_Clear         0x9d008798           0x18          24   
.text                   0x9d0087b0           0x18          24  App's exec code 
.rodata                 0x9d0087c8           0x18          24  Read-only const 
.rodata.cst8            0x9d0087e0           0x18          24   
.text                   0x9d0087f8           0x18          24  App's exec code 
.rodata                 0x9d008810           0x14          20  Read-only const 
.rodata.main.str1.4     0x9d008824           0x10          16   
.text._Exit             0x9d008834           0x10          16   
.rodata.str1.4          0x9d008844           0x20          32   
.rodata.cst8            0x9d008868           0x10          16   
.text.__exception_handl 0x9d008878            0xc          12   
.rodata.terminalTextAtt 0x9d008884            0xc          12   
.rodata.str1.4          0x9d008890            0xc          12   
.text.write             0x9d00889c            0x8           8   
.text.SYS_Tasks         0x9d0088a4            0x8           8   
.rodata.terminalClearSc 0x9d0088ac            0x8           8   
.text._on_reset         0x9d0088b4            0x8           8   
.text._on_bootstrap     0x9d0088bc            0x8           8   
.text.dummy             0x9d0088c4            0x8           8   
.text.__dummy           0x9d0088cc            0x8           8   
.text._exit             0x9d0088d4            0x8           8   
.text.lseek             0x9d0088dc            0x8           8   
.text.close             0x9d0088e4            0x8           8   
      Total kseg0_program_mem used  :      0x88e0       35040  1.7% of 0x200000

kseg0 Boot-Memory Usage
section                    address  length [bytes]      (dec)  Description
-------                 ----------  -------------------------  -----------
         Total kseg0_boot_mem used  :           0           0  

kseg1 Boot-Memory Usage
section                    address  length [bytes]      (dec)  Description
-------                 ----------  -------------------------  -----------
.reset                  0xbfc00000          0x1c4         452  Reset handler 
.bev_excpt              0xbfc00380           0x10          16  BEV-Exception 
         Total kseg1_boot_mem used  :       0x1d4         468  40.6% of 0x480
        --------------------------------------------------------------------------
         Total Program Memory used  :      0x8ab4       35508  1.7% of 0x200480
        --------------------------------------------------------------------------


Data-Memory Usage
section                    address  length [bytes]      (dec)  Description
-------                 ----------  -------------------------  -----------
reserve_data_0_kseg0    0x80000000          0x380         896   
.sdata                  0x80000380           0x24          36  Small init data 
.sbss                   0x800003a4           0x14          20  Small uninit data 
.data._stdout           0x800003b8            0x4           4   
.bss                    0x800003bc            0x4           4  Uninitialized data 
.data                   0x800053d0           0x68         104  Initialized data 
.bss                    0x80005438          0x210         528  Uninitialized data 
.bss.gDMAChannelObj     0x80005648           0x80         128   
.bss                    0x800056c8           0x50          80  Uninitialized data 
.bss.uart3Obj           0x80005718           0x34          52   
.bss.i2c5Obj            0x8000574c           0x34          52   
.bss                    0x80005780           0x24          36  Uninitialized data 
.bss.coreTmr            0x800057a4           0x10          16   
.bss.errno              0x800057b4            0x4           4   
reserve_data_0_kseg1    0xa0000000          0x380         896   
.COHERENTBSS$           0xa00003c0         0x5001       20481   
         Total kseg0/kseg1 data_mem used  :      0x5b29       23337  4.5% of 0x80000

Data-Memory Usage
section                    address  length [bytes]      (dec)  Description
-------                 ----------  -------------------------  -----------
reserve_data_0_kseg0    0x80000000          0x380         896   
reserve_data_0_kseg1    0xa0000000          0x380         896   
         Total kseg0/kseg1 data_mem used  :       0x700        1792  200.0% of 0x380
        --------------------------------------------------------------------------
            Total Data Memory used  :      0x6229       25129  4.8% of 0x80380
        --------------------------------------------------------------------------


Dynamic Data-Memory Reservation
section                    address  length [bytes]      (dec)  Description
-------                 ----------  -------------------------  -----------
heap                    0x800057c0        0x1c200      115200  Reserved for heap 
stack                   0x800219d8        0x5e620      386592  Reserved for stack 

        --------------------------------------------------------------------------

Note: Microchip PIC32 Memory-Usage Report By Module might not be accurate when used in conjunction with LTO!
Microchip PIC32 Memory-Usage Report By Module

        text        data         bss         dec         hex    basename                         filename
--------------------------------------------------------------------------------
        2884           0       20489       23373        5b4d    usb_uart.o                   build/default/debug/usb_uart.o
        4224           0           0        4224        1080    interrupts.o                 build/default/debug/_ext/1171490990/interrupts.o
        1888           0         528        2416         970    malloc.o                     libc-musl.a
        1936           0           0        1936         790    fma.o                        libm-musl.a
        1824           0           0        1824         720    __printf_core.o              libc-musl.a
        1788           0           0        1788         6fc    __fmt_fp.o                   libc-musl.a
        1584           0          52        1636         664    plib_i2c5_master.o           build/default/debug/_ext/513455433/plib_i2c5_master.o
        1628           0           0        1628         65c    __fmt_a.o                    libc-musl.a
        1276           0           0        1276         4fc    data_init                    data_init
         920           0         128        1048         418    plib_dmac.o                  build/default/debug/_ext/1865161661/plib_dmac.o
         956           0          52        1008         3f0    plib_uart3.o                 build/default/debug/_ext/1865657120/plib_uart3.o
        1004           0           0        1004         3ec    usb_uart_rx_lookup_table.o   build/default/debug/usb_uart_rx_lookup_table.o
         956           0           0         956         3bc    _udivdi3.o                   libgcc.a
         952           0           0         952         3b8    _umoddi3.o                   libgcc.a
           0         780           0         780         30c    ccV9qaPM.o                   C:\Users\drewm\AppData\Local\Temp\ccV9qaPM.o
         600           0           0         600         258    ccEOzkaJ.o                   C:\Users\drewm\AppData\Local\Temp\ccEOzkaJ.o
         560           0          36         596         254    sbrk.o                       libpic32.a
         512           0           0         512         200    __fmt_x.o                    libc-musl.a
         448          36           0         484         1e4    pic32_init_cache.o           libpic32.a
         416           0           0         416         1a0    strcpy.o                     libpic32.a
         392           0           0         392         188    __pop_int.o                  libc-musl.a
         368           0          16         384         180    plib_coretimer.o             build/default/debug/_ext/1249264884/plib_coretimer.o
         360           0           0         360         168    strlen.o                     libpic32.a
         360           0           0         360         168    memcpy.o                     libpic32.a
         360           0           0         360         168    terminal_control.o           build/default/debug/terminal_control.o
         336           0           0         336         150    __fmt_d.o                    libc-musl.a
         316           0           0         316         13c    __cvt_u.o                    libc-musl.a
         308           0           0         308         134    plib_clk.o                   build/default/debug/_ext/60165520/plib_clk.o
         288           0           0         288         120    strcmp.o                     libpic32.a
         284           0           0         284         11c    plib_gpio.o                  build/default/debug/_ext/1865254177/plib_gpio.o
         240           0           8         248          f8    plib_rtcc.o                  build/default/debug/_ext/1865585524/plib_rtcc.o
         244           0           0         244          f4    __fmt_o.o                    libc-musl.a
         228           0           0         228          e4    __pop_ptr.o                  libc-musl.a
         220           0           0         220          dc    general-exception.o          libpic32.a
         216           0           0         216          d8    strcspn.o                    libc-musl.a
         216           0           0         216          d8    simple-tlb-refill-exception.olibpic32.a
         216           0           0         216          d8    strspn.o                     libc-musl.a
         216           0           0         216          d8    cache-err-exception.o        libpic32.a
         204           0           0         204          cc    floor.o                      libm-musl.a
         196           0           0         196          c4    main.o                       build/default/debug/_ext/1360937237/main.o
         192           0           0         192          c0    __stdio_close.o              libc-musl.a
         192           0           0         192          c0    strchrnul.o                  libc-musl.a
         188           0           0         188          bc    pic32_init_tlb_ebi_sqi.o     libpic32.a
         188           0           0         188          bc    __fmt_u.o                    libc-musl.a
         172           0           0         172          ac    __out.o                      libc-musl.a
         164           0           4         168          a8    strtok.o                     libc-musl.a
         168           0           0         168          a8    memset.o                     libpic32.a
         168           0           0         168          a8    initialization.o             build/default/debug/_ext/1171490990/initialization.o
         164           0           0         164          a4    __fmt_s.o                    libc-musl.a
         160           0           0         160          a0    exceptions.o                 build/default/debug/_ext/1171490990/exceptions.o
         156           0           0         156          9c    scalbn.o                     libm-musl.a
         144           0           0         144          90    pic32_data_init_core.o       libpic32.a
         144           0           0         144          90    exit.o                       libc-musl.a
         144           0           0         144          90    plib_evic.o                  build/default/debug/_ext/1865200349/plib_evic.o
         128           0           0         128          80    fwrite.o                     libc-musl.a
         124           0           0         124          7c    putc.o                       libc-musl.a
         124           0           0         124          7c    atoi.o                       libc-musl.a
           8         108           0         116          74    stdout.o                     libc-musl.a
         104           0           4         108          6c    heartbeat_timer.o            build/default/debug/heartbeat_timer.o
          92           0           0          92          5c    fputs.o                      libc-musl.a
           0           0          80          80          50    libc.o                       libc-musl.a
          76           0           0          76          4c    stpncpy.o                    libc-musl.a
          76           0           0          76          4c    sys_reset.o                  build/default/debug/_ext/1000052432/sys_reset.o
          76           0           0          76          4c    puts.o                       libc-musl.a
          72           0           0          72          48    __pop_float.o                libc-musl.a
          72           0           0          72          48    defaultinterrupt.o           libpic32.a
          68           0           0          68          44    pic32_software_reset.o       c:/program files/microchip/xc32/v4.30/bin/bin/../../lib/gcc/pic32mx/8.3.1/../../../../pic32mx/lib/fpu64\pic32_software_reset.o
          60           0           0          60          3c    vfprintf.o                   libc-musl.a
          60           0           0          60          3c    expand_heap.o                libc-musl.a
          60           0           0          60          3c    printf.o                     libc-musl.a
          60           0           0          60          3c    _ashldi3.o                   libgcc.a
          60           0           0          60          3c    _lshrdi3.o                   libgcc.a
          56           0           0          56          38    strcat.o                     libc-musl.a
          52           0           0          52          34    plib_wdt.o                   build/default/debug/_ext/60184501/plib_wdt.o
          40           0           0          40          28    strncpy.o                    libc-musl.a
          36           0           0          36          24    software-debug-break.o       c:/program files/microchip/xc32/v4.30/bin/bin/../../lib/gcc/pic32mx/8.3.1/../../../../pic32mx/lib/fpu64\software-debug-break.o
          32           0           0          32          20    pic32_data_init_copy.o       libpic32.a
          28           0           0          28          1c    tolower.o                    libc-musl.a
          28           0           0          28          1c    toupper.o                    libc-musl.a
          24           0           0          24          18    default-nmi-handler.o        libpic32.a
          24           0           0          24          18    pic32_data_init_clear.o      libpic32.a
          16           0           0          16          10    _Exit.o                      libc-musl.a
           8           0           0           8           8    default-on-reset.o           libpic32.a
           8           0           0           8           8    _exit.o                      libpic32.a
           8           0           0           8           8    lseek.o                      libpic32.a
           8           0           0           8           8    close.o                      libpic32.a
           8           0           0           8           8    tasks.o                      build/default/debug/_ext/1171490990/tasks.o
           8           0           0           8           8    default-on-bootstrap.o       libpic32.a
           8           0           0           8           8    xc32_monitor.o               build/default/debug/_ext/163028504/xc32_monitor.o
           0           0           4           4           4    errno.o                      libpic32.a
          96           0        1792        1888         760    misc                         misc
--------------------------------------------------------------------------------
       36076         924       23193       60193        eb21    dist/default/debug/Nixie_Clock.X.debug.elf


Discarded input sections

 .text          0x0000000000000000        0x0 c:/program files/microchip/xc32/v4.30/bin/bin/../../lib/gcc/pic32mx/8.3.1/../../../../pic32mx/lib/fpu64\software-debug-break.o
 .data          0x0000000000000000        0x0 c:/program files/microchip/xc32/v4.30/bin/bin/../../lib/gcc/pic32mx/8.3.1/../../../../pic32mx/lib/fpu64\software-debug-break.o
 .bss           0x0000000000000000        0x0 c:/program files/microchip/xc32/v4.30/bin/bin/../../lib/gcc/pic32mx/8.3.1/../../../../pic32mx/lib/fpu64\software-debug-break.o
 .xc_stack_usage
                0x0000000000000000       0x27 c:/program files/microchip/xc32/v4.30/bin/bin/../../lib/gcc/pic32mx/8.3.1/../../../../pic32mx/lib/fpu64\software-debug-break.o
 .xc_stack_usage.hdr
                0x0000000000000000        0xe c:/program files/microchip/xc32/v4.30/bin/bin/../../lib/gcc/pic32mx/8.3.1/../../../../pic32mx/lib/fpu64\software-debug-break.o
 .text          0x0000000000000000        0x0 build/default/debug/_ext/1984157808/plib_cache.o
 .data          0x0000000000000000        0x0 build/default/debug/_ext/1984157808/plib_cache.o
 .bss           0x0000000000000000        0x0 build/default/debug/_ext/1984157808/plib_cache.o
 .reginfo       0x0000000000000000       0x18 build/default/debug/_ext/1984157808/plib_cache.o
 .MIPS.abiflags
                0x0000000000000000       0x18 build/default/debug/_ext/1984157808/plib_cache.o
 .text.CACHE_CacheInit
                0x0000000000000000       0x24 build/default/debug/_ext/1984157808/plib_cache.o
 .text.CACHE_CacheFlush
                0x0000000000000000       0x24 build/default/debug/_ext/1984157808/plib_cache.o
 .text.CACHE_DataCacheFlush
                0x0000000000000000       0x24 build/default/debug/_ext/1984157808/plib_cache.o
 .text.CACHE_InstructionCacheFlush
                0x0000000000000000       0x24 build/default/debug/_ext/1984157808/plib_cache.o
 .text.CACHE_CacheClean
                0x0000000000000000       0x24 build/default/debug/_ext/1984157808/plib_cache.o
 .text.CACHE_DataCacheClean
                0x0000000000000000       0x24 build/default/debug/_ext/1984157808/plib_cache.o
 .text.CACHE_DataCacheInvalidate
                0x0000000000000000       0x24 build/default/debug/_ext/1984157808/plib_cache.o
 .text.CACHE_InstructionCacheInvalidate
                0x0000000000000000       0x24 build/default/debug/_ext/1984157808/plib_cache.o
 .text.CACHE_InstructionCacheLock
                0x0000000000000000       0x24 build/default/debug/_ext/1984157808/plib_cache.o
 .text.CACHE_DataCacheLock
                0x0000000000000000       0x24 build/default/debug/_ext/1984157808/plib_cache.o
 .text.CACHE_CacheSync
                0x0000000000000000       0x24 build/default/debug/_ext/1984157808/plib_cache.o
 .text.CACHE_CacheCoherencySet
                0x0000000000000000       0x28 build/default/debug/_ext/1984157808/plib_cache.o
 .text.CACHE_CacheCoherencyGet
                0x0000000000000000       0x1c build/default/debug/_ext/1984157808/plib_cache.o
 .text.CACHE_DataCacheAssociativityGet
                0x0000000000000000       0x24 build/default/debug/_ext/1984157808/plib_cache.o
 .text.CACHE_InstructionCacheAssociativityGet
                0x0000000000000000       0x24 build/default/debug/_ext/1984157808/plib_cache.o
 .text.CACHE_DataCacheLineSizeGet
                0x0000000000000000       0x24 build/default/debug/_ext/1984157808/plib_cache.o
 .text.CACHE_InstructionCacheLineSizeGet
                0x0000000000000000       0x24 build/default/debug/_ext/1984157808/plib_cache.o
 .text.CACHE_DataCacheLinesPerWayGet
                0x0000000000000000       0x24 build/default/debug/_ext/1984157808/plib_cache.o
 .text.CACHE_InstructionCacheLinesPerWayGet
                0x0000000000000000       0x24 build/default/debug/_ext/1984157808/plib_cache.o
 .text.CACHE_DataCacheSizeGet
                0x0000000000000000       0x24 build/default/debug/_ext/1984157808/plib_cache.o
 .text.CACHE_InstructionCacheSizeGet
                0x0000000000000000       0x24 build/default/debug/_ext/1984157808/plib_cache.o
 .text          0x0000000000000000      0x6bc build/default/debug/_ext/1984157808/plib_cache_pic32mz.o
 .data          0x0000000000000000        0x0 build/default/debug/_ext/1984157808/plib_cache_pic32mz.o
 .bss           0x0000000000000000        0x0 build/default/debug/_ext/1984157808/plib_cache_pic32mz.o
 .reginfo       0x0000000000000000       0x18 build/default/debug/_ext/1984157808/plib_cache_pic32mz.o
 .MIPS.abiflags
                0x0000000000000000       0x18 build/default/debug/_ext/1984157808/plib_cache_pic32mz.o
 .debug_line    0x0000000000000000      0x208 build/default/debug/_ext/1984157808/plib_cache_pic32mz.o
 .debug_info    0x0000000000000000       0x26 build/default/debug/_ext/1984157808/plib_cache_pic32mz.o
 .debug_abbrev  0x0000000000000000       0x14 build/default/debug/_ext/1984157808/plib_cache_pic32mz.o
 .debug_aranges
                0x0000000000000000       0x20 build/default/debug/_ext/1984157808/plib_cache_pic32mz.o
 .debug_str     0x0000000000000000       0xc0 build/default/debug/_ext/1984157808/plib_cache_pic32mz.o
 .text          0x0000000000000000        0x0 build/default/debug/_ext/60165520/plib_clk.o
 .data          0x0000000000000000        0x0 build/default/debug/_ext/60165520/plib_clk.o
 .bss           0x0000000000000000        0x0 build/default/debug/_ext/60165520/plib_clk.o
 .reginfo       0x0000000000000000       0x18 build/default/debug/_ext/60165520/plib_clk.o
 .MIPS.abiflags
                0x0000000000000000       0x18 build/default/debug/_ext/60165520/plib_clk.o
 .text          0x0000000000000000        0x0 build/default/debug/_ext/1249264884/plib_coretimer.o
 .data          0x0000000000000000        0x0 build/default/debug/_ext/1249264884/plib_coretimer.o
 .bss           0x0000000000000000        0x0 build/default/debug/_ext/1249264884/plib_coretimer.o
 .reginfo       0x0000000000000000       0x18 build/default/debug/_ext/1249264884/plib_coretimer.o
 .MIPS.abiflags
                0x0000000000000000       0x18 build/default/debug/_ext/1249264884/plib_coretimer.o
 .text.CORETIMER_PeriodSet
                0x0000000000000000       0x14 build/default/debug/_ext/1249264884/plib_coretimer.o
 .text.CORETIMER_Stop
                0x0000000000000000       0x34 build/default/debug/_ext/1249264884/plib_coretimer.o
 .text.CORETIMER_FrequencyGet
                0x0000000000000000        0xc build/default/debug/_ext/1249264884/plib_coretimer.o
 .text.CORETIMER_DelayMs
                0x0000000000000000       0x4c build/default/debug/_ext/1249264884/plib_coretimer.o
 .text.CORETIMER_DelayUs
                0x0000000000000000       0x3c build/default/debug/_ext/1249264884/plib_coretimer.o
 .text          0x0000000000000000        0x0 build/default/debug/_ext/1865200349/plib_evic.o
 .data          0x0000000000000000        0x0 build/default/debug/_ext/1865200349/plib_evic.o
 .bss           0x0000000000000000        0x0 build/default/debug/_ext/1865200349/plib_evic.o
 .reginfo       0x0000000000000000       0x18 build/default/debug/_ext/1865200349/plib_evic.o
 .MIPS.abiflags
                0x0000000000000000       0x18 build/default/debug/_ext/1865200349/plib_evic.o
 .text.EVIC_SourceEnable
                0x0000000000000000       0x28 build/default/debug/_ext/1865200349/plib_evic.o
 .text.EVIC_SourceDisable
                0x0000000000000000       0x28 build/default/debug/_ext/1865200349/plib_evic.o
 .text.EVIC_SourceIsEnabled
                0x0000000000000000       0x20 build/default/debug/_ext/1865200349/plib_evic.o
 .text.EVIC_SourceStatusGet
                0x0000000000000000       0x20 build/default/debug/_ext/1865200349/plib_evic.o
 .text.EVIC_SourceStatusSet
                0x0000000000000000       0x28 build/default/debug/_ext/1865200349/plib_evic.o
 .text.EVIC_SourceStatusClear
                0x0000000000000000       0x28 build/default/debug/_ext/1865200349/plib_evic.o
 .text.EVIC_INT_Enable
                0x0000000000000000       0x18 build/default/debug/_ext/1865200349/plib_evic.o
 .text.EVIC_INT_Disable
                0x0000000000000000       0x20 build/default/debug/_ext/1865200349/plib_evic.o
 .text.EVIC_INT_Restore
                0x0000000000000000       0x28 build/default/debug/_ext/1865200349/plib_evic.o
 .text          0x0000000000000000        0x0 build/default/debug/_ext/1865254177/plib_gpio.o
 .data          0x0000000000000000        0x0 build/default/debug/_ext/1865254177/plib_gpio.o
 .bss           0x0000000000000000        0x0 build/default/debug/_ext/1865254177/plib_gpio.o
 .reginfo       0x0000000000000000       0x18 build/default/debug/_ext/1865254177/plib_gpio.o
 .MIPS.abiflags
                0x0000000000000000       0x18 build/default/debug/_ext/1865254177/plib_gpio.o
 .text.GPIO_PortRead
                0x0000000000000000       0x18 build/default/debug/_ext/1865254177/plib_gpio.o
 .text.GPIO_PortWrite
                0x0000000000000000       0x2c build/default/debug/_ext/1865254177/plib_gpio.o
 .text.GPIO_PortLatchRead
                0x0000000000000000       0x18 build/default/debug/_ext/1865254177/plib_gpio.o
 .text.GPIO_PortSet
                0x0000000000000000       0x1c build/default/debug/_ext/1865254177/plib_gpio.o
 .text.GPIO_PortClear
                0x0000000000000000       0x1c build/default/debug/_ext/1865254177/plib_gpio.o
 .text.GPIO_PortToggle
                0x0000000000000000       0x1c build/default/debug/_ext/1865254177/plib_gpio.o
 .text.GPIO_PortInputEnable
                0x0000000000000000       0x1c build/default/debug/_ext/1865254177/plib_gpio.o
 .text.GPIO_PortOutputEnable
                0x0000000000000000       0x1c build/default/debug/_ext/1865254177/plib_gpio.o
 .text          0x0000000000000000        0x0 build/default/debug/_ext/60179596/plib_ram.o
 .data          0x0000000000000000        0x0 build/default/debug/_ext/60179596/plib_ram.o
 .bss           0x0000000000000000        0x0 build/default/debug/_ext/60179596/plib_ram.o
 .reginfo       0x0000000000000000       0x18 build/default/debug/_ext/60179596/plib_ram.o
 .MIPS.abiflags
                0x0000000000000000       0x18 build/default/debug/_ext/60179596/plib_ram.o
 .text.RAM_Read
                0x0000000000000000       0x28 build/default/debug/_ext/60179596/plib_ram.o
 .text.RAM_Write
                0x0000000000000000       0x2c build/default/debug/_ext/60179596/plib_ram.o
 .text.RAM_IsBusy
                0x0000000000000000        0x8 build/default/debug/_ext/60179596/plib_ram.o
 .text          0x0000000000000000        0x0 build/default/debug/_ext/60184501/plib_wdt.o
 .data          0x0000000000000000        0x0 build/default/debug/_ext/60184501/plib_wdt.o
 .bss           0x0000000000000000        0x0 build/default/debug/_ext/60184501/plib_wdt.o
 .reginfo       0x0000000000000000       0x18 build/default/debug/_ext/60184501/plib_wdt.o
 .MIPS.abiflags
                0x0000000000000000       0x18 build/default/debug/_ext/60184501/plib_wdt.o
 .text.WDT_Disable
                0x0000000000000000       0x18 build/default/debug/_ext/60184501/plib_wdt.o
 .text.WDT_IsEnabled
                0x0000000000000000       0x10 build/default/debug/_ext/60184501/plib_wdt.o
 .text.WDT_WindowEnable
                0x0000000000000000       0x1c build/default/debug/_ext/60184501/plib_wdt.o
 .text.WDT_WindowDisable
                0x0000000000000000       0x18 build/default/debug/_ext/60184501/plib_wdt.o
 .text.WDT_IsWindowEnabled
                0x0000000000000000       0x10 build/default/debug/_ext/60184501/plib_wdt.o
 .text          0x0000000000000000        0x0 build/default/debug/_ext/163028504/xc32_monitor.o
 .data          0x0000000000000000        0x0 build/default/debug/_ext/163028504/xc32_monitor.o
 .bss           0x0000000000000000        0x0 build/default/debug/_ext/163028504/xc32_monitor.o
 .reginfo       0x0000000000000000       0x18 build/default/debug/_ext/163028504/xc32_monitor.o
 .MIPS.abiflags
                0x0000000000000000       0x18 build/default/debug/_ext/163028504/xc32_monitor.o
 .text.read     0x0000000000000000        0x8 build/default/debug/_ext/163028504/xc32_monitor.o
 .text          0x0000000000000000        0x0 build/default/debug/_ext/1014039709/sys_cache.o
 .data          0x0000000000000000        0x0 build/default/debug/_ext/1014039709/sys_cache.o
 .bss           0x0000000000000000        0x0 build/default/debug/_ext/1014039709/sys_cache.o
 .reginfo       0x0000000000000000       0x18 build/default/debug/_ext/1014039709/sys_cache.o
 .MIPS.abiflags
                0x0000000000000000       0x18 build/default/debug/_ext/1014039709/sys_cache.o
 .text.SYS_CACHE_EnableCaches
                0x0000000000000000       0x1c build/default/debug/_ext/1014039709/sys_cache.o
 .text.SYS_CACHE_DisableCaches
                0x0000000000000000       0x1c build/default/debug/_ext/1014039709/sys_cache.o
 .text.SYS_CACHE_EnableICache
                0x0000000000000000       0x1c build/default/debug/_ext/1014039709/sys_cache.o
 .text.SYS_CACHE_DisableICache
                0x0000000000000000       0x1c build/default/debug/_ext/1014039709/sys_cache.o
 .text.SYS_CACHE_EnableDCache
                0x0000000000000000       0x1c build/default/debug/_ext/1014039709/sys_cache.o
 .text.SYS_CACHE_DisableDCache
                0x0000000000000000       0x1c build/default/debug/_ext/1014039709/sys_cache.o
 .text.SYS_CACHE_CleanDCache
                0x0000000000000000       0x1c build/default/debug/_ext/1014039709/sys_cache.o
 .text.SYS_CACHE_InvalidateICache
                0x0000000000000000       0x30 build/default/debug/_ext/1014039709/sys_cache.o
 .text.SYS_CACHE_InvalidateDCache
                0x0000000000000000       0x30 build/default/debug/_ext/1014039709/sys_cache.o
 .text.SYS_CACHE_InvalidateDCache_by_Addr
                0x0000000000000000       0x44 build/default/debug/_ext/1014039709/sys_cache.o
 .text.SYS_CACHE_CleanDCache_by_Addr
                0x0000000000000000       0x44 build/default/debug/_ext/1014039709/sys_cache.o
 .text.SYS_CACHE_CleanInvalidateDCache
                0x0000000000000000       0x30 build/default/debug/_ext/1014039709/sys_cache.o
 .text.SYS_CACHE_CleanInvalidateDCache_by_Addr
                0x0000000000000000       0x44 build/default/debug/_ext/1014039709/sys_cache.o
 .text          0x0000000000000000        0x0 build/default/debug/_ext/14461671/sys_dma.o
 .data          0x0000000000000000        0x0 build/default/debug/_ext/14461671/sys_dma.o
 .bss           0x0000000000000000        0x0 build/default/debug/_ext/14461671/sys_dma.o
 .reginfo       0x0000000000000000       0x18 build/default/debug/_ext/14461671/sys_dma.o
 .MIPS.abiflags
                0x0000000000000000       0x18 build/default/debug/_ext/14461671/sys_dma.o
 .text.SYS_DMA_AddressingModeSetup
                0x0000000000000000        0x8 build/default/debug/_ext/14461671/sys_dma.o
 .text.SYS_DMA_DataWidthSetup
                0x0000000000000000        0x8 build/default/debug/_ext/14461671/sys_dma.o
 .text.SYS_DMA_ChannelTransfer
                0x0000000000000000        0x8 build/default/debug/_ext/14461671/sys_dma.o
 .text          0x0000000000000000        0x0 build/default/debug/_ext/1881668453/sys_int.o
 .data          0x0000000000000000        0x0 build/default/debug/_ext/1881668453/sys_int.o
 .bss           0x0000000000000000        0x0 build/default/debug/_ext/1881668453/sys_int.o
 .reginfo       0x0000000000000000       0x18 build/default/debug/_ext/1881668453/sys_int.o
 .MIPS.abiflags
                0x0000000000000000       0x18 build/default/debug/_ext/1881668453/sys_int.o
 .text.SYS_INT_Enable
                0x0000000000000000       0x1c build/default/debug/_ext/1881668453/sys_int.o
 .text.SYS_INT_Disable
                0x0000000000000000       0x1c build/default/debug/_ext/1881668453/sys_int.o
 .text.SYS_INT_Restore
                0x0000000000000000       0x1c build/default/debug/_ext/1881668453/sys_int.o
 .text.SYS_INT_SourceDisable
                0x0000000000000000       0x58 build/default/debug/_ext/1881668453/sys_int.o
 .text.SYS_INT_SourceRestore
                0x0000000000000000       0x2c build/default/debug/_ext/1881668453/sys_int.o
 .text          0x0000000000000000        0x0 build/default/debug/_ext/1000052432/sys_reset.o
 .data          0x0000000000000000        0x0 build/default/debug/_ext/1000052432/sys_reset.o
 .bss           0x0000000000000000        0x0 build/default/debug/_ext/1000052432/sys_reset.o
 .reginfo       0x0000000000000000       0x18 build/default/debug/_ext/1000052432/sys_reset.o
 .MIPS.abiflags
                0x0000000000000000       0x18 build/default/debug/_ext/1000052432/sys_reset.o
 .text          0x0000000000000000        0x0 build/default/debug/_ext/1171490990/interrupts.o
 .data          0x0000000000000000        0x0 build/default/debug/_ext/1171490990/interrupts.o
 .bss           0x0000000000000000        0x0 build/default/debug/_ext/1171490990/interrupts.o
 .reginfo       0x0000000000000000       0x18 build/default/debug/_ext/1171490990/interrupts.o
 .MIPS.abiflags
                0x0000000000000000       0x18 build/default/debug/_ext/1171490990/interrupts.o
 .text          0x0000000000000000        0x0 build/default/debug/_ext/1171490990/initialization.o
 .data          0x0000000000000000        0x0 build/default/debug/_ext/1171490990/initialization.o
 .bss           0x0000000000000000        0x0 build/default/debug/_ext/1171490990/initialization.o
 .reginfo       0x0000000000000000       0x18 build/default/debug/_ext/1171490990/initialization.o
 .MIPS.abiflags
                0x0000000000000000       0x18 build/default/debug/_ext/1171490990/initialization.o
 .sbss.sysObj   0x0000000000000000        0x1 build/default/debug/_ext/1171490990/initialization.o
 .text          0x0000000000000000        0x0 build/default/debug/_ext/1171490990/tasks.o
 .data          0x0000000000000000        0x0 build/default/debug/_ext/1171490990/tasks.o
 .bss           0x0000000000000000        0x0 build/default/debug/_ext/1171490990/tasks.o
 .reginfo       0x0000000000000000       0x18 build/default/debug/_ext/1171490990/tasks.o
 .MIPS.abiflags
                0x0000000000000000       0x18 build/default/debug/_ext/1171490990/tasks.o
 .text          0x0000000000000000        0x0 build/default/debug/_ext/1171490990/exceptions.o
 .data          0x0000000000000000        0x0 build/default/debug/_ext/1171490990/exceptions.o
 .bss           0x0000000000000000        0x0 build/default/debug/_ext/1171490990/exceptions.o
 .reginfo       0x0000000000000000       0x18 build/default/debug/_ext/1171490990/exceptions.o
 .MIPS.abiflags
                0x0000000000000000       0x18 build/default/debug/_ext/1171490990/exceptions.o
 .text          0x0000000000000000        0x0 build/default/debug/heartbeat_timer.o
 .data          0x0000000000000000        0x0 build/default/debug/heartbeat_timer.o
 .bss           0x0000000000000000        0x0 build/default/debug/heartbeat_timer.o
 .reginfo       0x0000000000000000       0x18 build/default/debug/heartbeat_timer.o
 .MIPS.abiflags
                0x0000000000000000       0x18 build/default/debug/heartbeat_timer.o
 .text          0x0000000000000000        0x0 build/default/debug/_ext/1360937237/main.o
 .data          0x0000000000000000        0x0 build/default/debug/_ext/1360937237/main.o
 .bss           0x0000000000000000        0x0 build/default/debug/_ext/1360937237/main.o
 .reginfo       0x0000000000000000       0x18 build/default/debug/_ext/1360937237/main.o
 .MIPS.abiflags
                0x0000000000000000       0x18 build/default/debug/_ext/1360937237/main.o
 .text          0x0000000000000000        0x0 build/default/debug/_ext/1865657120/plib_uart3.o
 .data          0x0000000000000000        0x0 build/default/debug/_ext/1865657120/plib_uart3.o
 .bss           0x0000000000000000        0x0 build/default/debug/_ext/1865657120/plib_uart3.o
 .reginfo       0x0000000000000000       0x18 build/default/debug/_ext/1865657120/plib_uart3.o
 .MIPS.abiflags
                0x0000000000000000       0x18 build/default/debug/_ext/1865657120/plib_uart3.o
 .text.UART3_SerialSetup
                0x0000000000000000      0x134 build/default/debug/_ext/1865657120/plib_uart3.o
 .text.UART3_AutoBaudQuery
                0x0000000000000000       0x10 build/default/debug/_ext/1865657120/plib_uart3.o
 .text.UART3_AutoBaudSet
                0x0000000000000000       0x18 build/default/debug/_ext/1865657120/plib_uart3.o
 .text.UART3_Read
                0x0000000000000000       0x90 build/default/debug/_ext/1865657120/plib_uart3.o
 .text.UART3_Write
                0x0000000000000000       0xd4 build/default/debug/_ext/1865657120/plib_uart3.o
 .text.UART3_ErrorGet
                0x0000000000000000       0x18 build/default/debug/_ext/1865657120/plib_uart3.o
 .text.UART3_ReadCallbackRegister
                0x0000000000000000       0x18 build/default/debug/_ext/1865657120/plib_uart3.o
 .text.UART3_ReadIsBusy
                0x0000000000000000       0x14 build/default/debug/_ext/1865657120/plib_uart3.o
 .text.UART3_ReadCountGet
                0x0000000000000000       0x14 build/default/debug/_ext/1865657120/plib_uart3.o
 .text.UART3_ReadAbort
                0x0000000000000000       0x44 build/default/debug/_ext/1865657120/plib_uart3.o
 .text.UART3_WriteCallbackRegister
                0x0000000000000000       0x18 build/default/debug/_ext/1865657120/plib_uart3.o
 .text.UART3_WriteIsBusy
                0x0000000000000000       0x14 build/default/debug/_ext/1865657120/plib_uart3.o
 .text.UART3_WriteCountGet
                0x0000000000000000       0x14 build/default/debug/_ext/1865657120/plib_uart3.o
 .text.UART3_TransmitComplete
                0x0000000000000000       0x10 build/default/debug/_ext/1865657120/plib_uart3.o
 .text          0x0000000000000000        0x0 build/default/debug/_ext/1865585524/plib_rtcc.o
 .data          0x0000000000000000        0x0 build/default/debug/_ext/1865585524/plib_rtcc.o
 .bss           0x0000000000000000        0x0 build/default/debug/_ext/1865585524/plib_rtcc.o
 .reginfo       0x0000000000000000       0x18 build/default/debug/_ext/1865585524/plib_rtcc.o
 .MIPS.abiflags
                0x0000000000000000       0x18 build/default/debug/_ext/1865585524/plib_rtcc.o
 .text.RTCC_InterruptEnable
                0x0000000000000000       0x10 build/default/debug/_ext/1865585524/plib_rtcc.o
 .text.RTCC_InterruptDisable
                0x0000000000000000       0x10 build/default/debug/_ext/1865585524/plib_rtcc.o
 .text.RTCC_TimeSet
                0x0000000000000000      0x1e0 build/default/debug/_ext/1865585524/plib_rtcc.o
 .text.RTCC_TimeGet
                0x0000000000000000       0xf4 build/default/debug/_ext/1865585524/plib_rtcc.o
 .text.RTCC_AlarmSet
                0x0000000000000000      0x1d0 build/default/debug/_ext/1865585524/plib_rtcc.o
 .text.RTCC_CallbackRegister
                0x0000000000000000       0x14 build/default/debug/_ext/1865585524/plib_rtcc.o
 .text          0x0000000000000000        0x0 build/default/debug/_ext/513455433/plib_i2c5_master.o
 .data          0x0000000000000000        0x0 build/default/debug/_ext/513455433/plib_i2c5_master.o
 .bss           0x0000000000000000        0x0 build/default/debug/_ext/513455433/plib_i2c5_master.o
 .reginfo       0x0000000000000000       0x18 build/default/debug/_ext/513455433/plib_i2c5_master.o
 .MIPS.abiflags
                0x0000000000000000       0x18 build/default/debug/_ext/513455433/plib_i2c5_master.o
 .text.I2C5_CallbackRegister
                0x0000000000000000       0x1c build/default/debug/_ext/513455433/plib_i2c5_master.o
 .text.I2C5_IsBusy
                0x0000000000000000       0x40 build/default/debug/_ext/513455433/plib_i2c5_master.o
 .text.I2C5_Read
                0x0000000000000000       0x88 build/default/debug/_ext/513455433/plib_i2c5_master.o
 .text.I2C5_Write
                0x0000000000000000       0x88 build/default/debug/_ext/513455433/plib_i2c5_master.o
 .text.I2C5_WriteRead
                0x0000000000000000       0x8c build/default/debug/_ext/513455433/plib_i2c5_master.o
 .text.I2C5_ErrorGet
                0x0000000000000000       0x18 build/default/debug/_ext/513455433/plib_i2c5_master.o
 .text.I2C5_TransferSetup
                0x0000000000000000       0xf8 build/default/debug/_ext/513455433/plib_i2c5_master.o
 .text.I2C5_TransferAbort
                0x0000000000000000       0x48 build/default/debug/_ext/513455433/plib_i2c5_master.o
 .rodata.cst4   0x0000000000000000       0x10 build/default/debug/_ext/513455433/plib_i2c5_master.o
 .text          0x0000000000000000        0x0 build/default/debug/_ext/1865161661/plib_dmac.o
 .data          0x0000000000000000        0x0 build/default/debug/_ext/1865161661/plib_dmac.o
 .bss           0x0000000000000000        0x0 build/default/debug/_ext/1865161661/plib_dmac.o
 .reginfo       0x0000000000000000       0x18 build/default/debug/_ext/1865161661/plib_dmac.o
 .MIPS.abiflags
                0x0000000000000000       0x18 build/default/debug/_ext/1865161661/plib_dmac.o
 .text.DMAC_ChannelSetAddresses
                0x0000000000000000      0x100 build/default/debug/_ext/1865161661/plib_dmac.o
 .text.DMAC_ChannelTransfer
                0x0000000000000000      0x104 build/default/debug/_ext/1865161661/plib_dmac.o
 .text.DMAC_ChainTransferSetup
                0x0000000000000000       0xcc build/default/debug/_ext/1865161661/plib_dmac.o
 .text.DMAC_ChannelPatternMatchDisable
                0x0000000000000000       0x28 build/default/debug/_ext/1865161661/plib_dmac.o
 .text.DMAC_ChannelDisable
                0x0000000000000000       0x44 build/default/debug/_ext/1865161661/plib_dmac.o
 .text.DMAC_ChannelIsBusy
                0x0000000000000000       0x3c build/default/debug/_ext/1865161661/plib_dmac.o
 .text.DMAC_ChannelTransferStatusGet
                0x0000000000000000       0x40 build/default/debug/_ext/1865161661/plib_dmac.o
 .text.DMAC_ChannelCRCSetup
                0x0000000000000000       0x8c build/default/debug/_ext/1865161661/plib_dmac.o
 .text.DMAC_CRCDisable
                0x0000000000000000       0x14 build/default/debug/_ext/1865161661/plib_dmac.o
 .text.DMAC_CRCRead
                0x0000000000000000       0x58 build/default/debug/_ext/1865161661/plib_dmac.o
 .bss.gCRCSetup
                0x0000000000000000       0x14 build/default/debug/_ext/1865161661/plib_dmac.o
 .text          0x0000000000000000        0x0 build/default/debug/usb_uart.o
 .data          0x0000000000000000        0x0 build/default/debug/usb_uart.o
 .bss           0x0000000000000000        0x0 build/default/debug/usb_uart.o
 .reginfo       0x0000000000000000       0x18 build/default/debug/usb_uart.o
 .MIPS.abiflags
                0x0000000000000000       0x18 build/default/debug/usb_uart.o
 .text._mon_putc
                0x0000000000000000       0x6c build/default/debug/usb_uart.o
 .rodata.getStringSecondsAsTime.str1.4
                0x0000000000000000       0x7c build/default/debug/usb_uart.o
 .text.getStringSecondsAsTime
                0x0000000000000000      0x2fc build/default/debug/usb_uart.o
 .text.usbUartCheckIfBusy
                0x0000000000000000       0x10 build/default/debug/usb_uart.o
 .bss.return_string.29701
                0x0000000000000000       0x50 build/default/debug/usb_uart.o
 .text          0x0000000000000000        0x0 build/default/debug/usb_uart_rx_lookup_table.o
 .data          0x0000000000000000        0x0 build/default/debug/usb_uart_rx_lookup_table.o
 .bss           0x0000000000000000        0x0 build/default/debug/usb_uart_rx_lookup_table.o
 .reginfo       0x0000000000000000       0x18 build/default/debug/usb_uart_rx_lookup_table.o
 .MIPS.abiflags
                0x0000000000000000       0x18 build/default/debug/usb_uart_rx_lookup_table.o
 .text          0x0000000000000000        0x0 build/default/debug/terminal_control.o
 .data          0x0000000000000000        0x0 build/default/debug/terminal_control.o
 .bss           0x0000000000000000        0x0 build/default/debug/terminal_control.o
 .reginfo       0x0000000000000000       0x18 build/default/debug/terminal_control.o
 .MIPS.abiflags
                0x0000000000000000       0x18 build/default/debug/terminal_control.o
 .rodata.terminalClearLine.str1.4
                0x0000000000000000        0x4 build/default/debug/terminal_control.o
 .text.terminalClearLine
                0x0000000000000000       0x20 build/default/debug/terminal_control.o
 .rodata.terminalSaveCursor.str1.4
                0x0000000000000000        0x4 build/default/debug/terminal_control.o
 .text.terminalSaveCursor
                0x0000000000000000       0x20 build/default/debug/terminal_control.o
 .rodata.terminalReturnCursor.str1.4
                0x0000000000000000        0x4 build/default/debug/terminal_control.o
 .text.terminalReturnCursor
                0x0000000000000000       0x20 build/default/debug/terminal_control.o
 .rodata.terminalPrintTestMessage.str1.4
                0x0000000000000000      0x2c4 build/default/debug/terminal_control.o
 .text.terminalPrintTestMessage
                0x0000000000000000      0x364 build/default/debug/terminal_control.o
 .rodata.terminalSetTitle.str1.4
                0x0000000000000000        0x8 build/default/debug/terminal_control.o
 .text.terminalSetTitle
                0x0000000000000000       0x24 build/default/debug/terminal_control.o
 .text          0x0000000000000000        0x0 C:\Users\drewm\AppData\Local\Temp\ccEOzkaJ.o
 .data          0x0000000000000000        0x0 C:\Users\drewm\AppData\Local\Temp\ccEOzkaJ.o
 .bss           0x0000000000000000        0x0 C:\Users\drewm\AppData\Local\Temp\ccEOzkaJ.o
 .reginfo       0x0000000000000000       0x18 C:\Users\drewm\AppData\Local\Temp\ccEOzkaJ.o
 .MIPS.abiflags
                0x0000000000000000       0x18 C:\Users\drewm\AppData\Local\Temp\ccEOzkaJ.o
 .text          0x0000000000000000        0x0 C:\Users\drewm\AppData\Local\Temp\ccxWnPAL.o
 .data          0x0000000000000000        0x0 C:\Users\drewm\AppData\Local\Temp\ccxWnPAL.o
 .bss           0x0000000000000000        0x0 C:\Users\drewm\AppData\Local\Temp\ccxWnPAL.o
 .reginfo       0x0000000000000000       0x18 C:\Users\drewm\AppData\Local\Temp\ccxWnPAL.o
 .MIPS.abiflags
                0x0000000000000000       0x18 C:\Users\drewm\AppData\Local\Temp\ccxWnPAL.o
 .text          0x0000000000000000        0x0 C:\Users\drewm\AppData\Local\Temp\ccV9qaPM.o
 .data          0x0000000000000000        0x0 C:\Users\drewm\AppData\Local\Temp\ccV9qaPM.o
 .bss           0x0000000000000000        0x0 C:\Users\drewm\AppData\Local\Temp\ccV9qaPM.o
 .reginfo       0x0000000000000000       0x18 C:\Users\drewm\AppData\Local\Temp\ccV9qaPM.o
 .MIPS.abiflags
                0x0000000000000000       0x18 C:\Users\drewm\AppData\Local\Temp\ccV9qaPM.o
 .text          0x0000000000000000        0x0 C:\Users\drewm\AppData\Local\Temp\ccR2QC0V.o
 .data          0x0000000000000000        0x0 C:\Users\drewm\AppData\Local\Temp\ccR2QC0V.o
 .bss           0x0000000000000000        0x0 C:\Users\drewm\AppData\Local\Temp\ccR2QC0V.o
 .reginfo       0x0000000000000000       0x18 C:\Users\drewm\AppData\Local\Temp\ccR2QC0V.o
 .MIPS.abiflags
                0x0000000000000000       0x18 C:\Users\drewm\AppData\Local\Temp\ccR2QC0V.o
 .discard       0x0000000000000000        0x4 C:\Users\drewm\AppData\Local\Temp\ccR2QC0V.o
 .data          0x0000000000000000        0x0 c:/program files/microchip/xc32/v4.30/bin/bin/../../lib/gcc/pic32mx/8.3.1/../../../../pic32mx/lib/fpu64\pic32_software_reset.o
 .bss           0x0000000000000000        0x0 c:/program files/microchip/xc32/v4.30/bin/bin/../../lib/gcc/pic32mx/8.3.1/../../../../pic32mx/lib/fpu64\pic32_software_reset.o
 .reginfo       0x0000000000000000       0x18 c:/program files/microchip/xc32/v4.30/bin/bin/../../lib/gcc/pic32mx/8.3.1/../../../../pic32mx/lib/fpu64\pic32_software_reset.o
 .MIPS.abiflags
                0x0000000000000000       0x18 c:/program files/microchip/xc32/v4.30/bin/bin/../../lib/gcc/pic32mx/8.3.1/../../../../pic32mx/lib/fpu64\pic32_software_reset.o
 .xc_stack_usage.hdr
                0x0000000000000000        0xe c:/program files/microchip/xc32/v4.30/bin/bin/../../lib/gcc/pic32mx/8.3.1/../../../../pic32mx/lib/fpu64\pic32_software_reset.o
 .xc_stack_usage
                0x0000000000000000       0x24 c:/program files/microchip/xc32/v4.30/bin/bin/../../lib/gcc/pic32mx/8.3.1/../../../../pic32mx/lib/fpu64\pic32_software_reset.o
 .data          0x0000000000000000        0x0 c:/program files/microchip/xc32/v4.30/bin/bin/../../lib/gcc/pic32mx/8.3.1/../../../../pic32mx/lib/fpu64\libpic32.a(memcpy.o)
 .bss           0x0000000000000000        0x0 c:/program files/microchip/xc32/v4.30/bin/bin/../../lib/gcc/pic32mx/8.3.1/../../../../pic32mx/lib/fpu64\libpic32.a(memcpy.o)
 .reginfo       0x0000000000000000       0x18 c:/program files/microchip/xc32/v4.30/bin/bin/../../lib/gcc/pic32mx/8.3.1/../../../../pic32mx/lib/fpu64\libpic32.a(memcpy.o)
 .MIPS.abiflags
                0x0000000000000000       0x18 c:/program files/microchip/xc32/v4.30/bin/bin/../../lib/gcc/pic32mx/8.3.1/../../../../pic32mx/lib/fpu64\libpic32.a(memcpy.o)
 .xc_stack_usage.hdr
                0x0000000000000000        0xe c:/program files/microchip/xc32/v4.30/bin/bin/../../lib/gcc/pic32mx/8.3.1/../../../../pic32mx/lib/fpu64\libpic32.a(memcpy.o)
 .xc_stack_usage
                0x0000000000000000       0x14 c:/program files/microchip/xc32/v4.30/bin/bin/../../lib/gcc/pic32mx/8.3.1/../../../../pic32mx/lib/fpu64\libpic32.a(memcpy.o)
 .data          0x0000000000000000        0x0 c:/program files/microchip/xc32/v4.30/bin/bin/../../lib/gcc/pic32mx/8.3.1/../../../../pic32mx/lib/fpu64\libpic32.a(memset.o)
 .bss           0x0000000000000000        0x0 c:/program files/microchip/xc32/v4.30/bin/bin/../../lib/gcc/pic32mx/8.3.1/../../../../pic32mx/lib/fpu64\libpic32.a(memset.o)
 .reginfo       0x0000000000000000       0x18 c:/program files/microchip/xc32/v4.30/bin/bin/../../lib/gcc/pic32mx/8.3.1/../../../../pic32mx/lib/fpu64\libpic32.a(memset.o)
 .MIPS.abiflags
                0x0000000000000000       0x18 c:/program files/microchip/xc32/v4.30/bin/bin/../../lib/gcc/pic32mx/8.3.1/../../../../pic32mx/lib/fpu64\libpic32.a(memset.o)
 .xc_stack_usage.hdr
                0x0000000000000000        0xe c:/program files/microchip/xc32/v4.30/bin/bin/../../lib/gcc/pic32mx/8.3.1/../../../../pic32mx/lib/fpu64\libpic32.a(memset.o)
 .xc_stack_usage
                0x0000000000000000       0x14 c:/program files/microchip/xc32/v4.30/bin/bin/../../lib/gcc/pic32mx/8.3.1/../../../../pic32mx/lib/fpu64\libpic32.a(memset.o)
 .data          0x0000000000000000        0x0 c:/program files/microchip/xc32/v4.30/bin/bin/../../lib/gcc/pic32mx/8.3.1/../../../../pic32mx/lib/fpu64\libpic32.a(strcmp.o)
 .bss           0x0000000000000000        0x0 c:/program files/microchip/xc32/v4.30/bin/bin/../../lib/gcc/pic32mx/8.3.1/../../../../pic32mx/lib/fpu64\libpic32.a(strcmp.o)
 .reginfo       0x0000000000000000       0x18 c:/program files/microchip/xc32/v4.30/bin/bin/../../lib/gcc/pic32mx/8.3.1/../../../../pic32mx/lib/fpu64\libpic32.a(strcmp.o)
 .MIPS.abiflags
                0x0000000000000000       0x18 c:/program files/microchip/xc32/v4.30/bin/bin/../../lib/gcc/pic32mx/8.3.1/../../../../pic32mx/lib/fpu64\libpic32.a(strcmp.o)
 .xc_stack_usage.hdr
                0x0000000000000000        0xe c:/program files/microchip/xc32/v4.30/bin/bin/../../lib/gcc/pic32mx/8.3.1/../../../../pic32mx/lib/fpu64\libpic32.a(strcmp.o)
 .xc_stack_usage
                0x0000000000000000       0x14 c:/program files/microchip/xc32/v4.30/bin/bin/../../lib/gcc/pic32mx/8.3.1/../../../../pic32mx/lib/fpu64\libpic32.a(strcmp.o)
 .data          0x0000000000000000        0x0 c:/program files/microchip/xc32/v4.30/bin/bin/../../lib/gcc/pic32mx/8.3.1/../../../../pic32mx/lib/fpu64\libpic32.a(strcpy.o)
 .bss           0x0000000000000000        0x0 c:/program files/microchip/xc32/v4.30/bin/bin/../../lib/gcc/pic32mx/8.3.1/../../../../pic32mx/lib/fpu64\libpic32.a(strcpy.o)
 .reginfo       0x0000000000000000       0x18 c:/program files/microchip/xc32/v4.30/bin/bin/../../lib/gcc/pic32mx/8.3.1/../../../../pic32mx/lib/fpu64\libpic32.a(strcpy.o)
 .MIPS.abiflags
                0x0000000000000000       0x18 c:/program files/microchip/xc32/v4.30/bin/bin/../../lib/gcc/pic32mx/8.3.1/../../../../pic32mx/lib/fpu64\libpic32.a(strcpy.o)
 .xc_stack_usage.hdr
                0x0000000000000000        0xe c:/program files/microchip/xc32/v4.30/bin/bin/../../lib/gcc/pic32mx/8.3.1/../../../../pic32mx/lib/fpu64\libpic32.a(strcpy.o)
 .xc_stack_usage
                0x0000000000000000       0x14 c:/program files/microchip/xc32/v4.30/bin/bin/../../lib/gcc/pic32mx/8.3.1/../../../../pic32mx/lib/fpu64\libpic32.a(strcpy.o)
 .data          0x0000000000000000        0x0 c:/program files/microchip/xc32/v4.30/bin/bin/../../lib/gcc/pic32mx/8.3.1/../../../../pic32mx/lib/fpu64\libpic32.a(strlen.o)
 .bss           0x0000000000000000        0x0 c:/program files/microchip/xc32/v4.30/bin/bin/../../lib/gcc/pic32mx/8.3.1/../../../../pic32mx/lib/fpu64\libpic32.a(strlen.o)
 .reginfo       0x0000000000000000       0x18 c:/program files/microchip/xc32/v4.30/bin/bin/../../lib/gcc/pic32mx/8.3.1/../../../../pic32mx/lib/fpu64\libpic32.a(strlen.o)
 .MIPS.abiflags
                0x0000000000000000       0x18 c:/program files/microchip/xc32/v4.30/bin/bin/../../lib/gcc/pic32mx/8.3.1/../../../../pic32mx/lib/fpu64\libpic32.a(strlen.o)
 .xc_stack_usage.hdr
                0x0000000000000000        0xe c:/program files/microchip/xc32/v4.30/bin/bin/../../lib/gcc/pic32mx/8.3.1/../../../../pic32mx/lib/fpu64\libpic32.a(strlen.o)
 .xc_stack_usage
                0x0000000000000000       0x14 c:/program files/microchip/xc32/v4.30/bin/bin/../../lib/gcc/pic32mx/8.3.1/../../../../pic32mx/lib/fpu64\libpic32.a(strlen.o)
 .text          0x0000000000000000        0x0 c:/program files/microchip/xc32/v4.30/bin/bin/../../lib/gcc/pic32mx/8.3.1/../../../../pic32mx/lib/fpu64\libpic32.a(default-on-reset.o)
 .data          0x0000000000000000        0x0 c:/program files/microchip/xc32/v4.30/bin/bin/../../lib/gcc/pic32mx/8.3.1/../../../../pic32mx/lib/fpu64\libpic32.a(default-on-reset.o)
 .bss           0x0000000000000000        0x0 c:/program files/microchip/xc32/v4.30/bin/bin/../../lib/gcc/pic32mx/8.3.1/../../../../pic32mx/lib/fpu64\libpic32.a(default-on-reset.o)
 .reginfo       0x0000000000000000       0x18 c:/program files/microchip/xc32/v4.30/bin/bin/../../lib/gcc/pic32mx/8.3.1/../../../../pic32mx/lib/fpu64\libpic32.a(default-on-reset.o)
 .MIPS.abiflags
                0x0000000000000000       0x18 c:/program files/microchip/xc32/v4.30/bin/bin/../../lib/gcc/pic32mx/8.3.1/../../../../pic32mx/lib/fpu64\libpic32.a(default-on-reset.o)
 .xc_stack_usage
                0x0000000000000000       0x17 c:/program files/microchip/xc32/v4.30/bin/bin/../../lib/gcc/pic32mx/8.3.1/../../../../pic32mx/lib/fpu64\libpic32.a(default-on-reset.o)
 .xc_stack_usage.hdr
                0x0000000000000000        0xe c:/program files/microchip/xc32/v4.30/bin/bin/../../lib/gcc/pic32mx/8.3.1/../../../../pic32mx/lib/fpu64\libpic32.a(default-on-reset.o)
 .text          0x0000000000000000        0x0 c:/program files/microchip/xc32/v4.30/bin/bin/../../lib/gcc/pic32mx/8.3.1/../../../../pic32mx/lib/fpu64\libpic32.a(default-on-bootstrap.o)
 .data          0x0000000000000000        0x0 c:/program files/microchip/xc32/v4.30/bin/bin/../../lib/gcc/pic32mx/8.3.1/../../../../pic32mx/lib/fpu64\libpic32.a(default-on-bootstrap.o)
 .bss           0x0000000000000000        0x0 c:/program files/microchip/xc32/v4.30/bin/bin/../../lib/gcc/pic32mx/8.3.1/../../../../pic32mx/lib/fpu64\libpic32.a(default-on-bootstrap.o)
 .reginfo       0x0000000000000000       0x18 c:/program files/microchip/xc32/v4.30/bin/bin/../../lib/gcc/pic32mx/8.3.1/../../../../pic32mx/lib/fpu64\libpic32.a(default-on-bootstrap.o)
 .MIPS.abiflags
                0x0000000000000000       0x18 c:/program files/microchip/xc32/v4.30/bin/bin/../../lib/gcc/pic32mx/8.3.1/../../../../pic32mx/lib/fpu64\libpic32.a(default-on-bootstrap.o)
 .xc_stack_usage
                0x0000000000000000       0x1b c:/program files/microchip/xc32/v4.30/bin/bin/../../lib/gcc/pic32mx/8.3.1/../../../../pic32mx/lib/fpu64\libpic32.a(default-on-bootstrap.o)
 .xc_stack_usage.hdr
                0x0000000000000000        0xe c:/program files/microchip/xc32/v4.30/bin/bin/../../lib/gcc/pic32mx/8.3.1/../../../../pic32mx/lib/fpu64\libpic32.a(default-on-bootstrap.o)
 .data          0x0000000000000000        0x0 c:/program files/microchip/xc32/v4.30/bin/bin/../../lib/gcc/pic32mx/8.3.1/../../../../pic32mx/lib/fpu64\libpic32.a(default-nmi-handler.o)
 .bss           0x0000000000000000        0x0 c:/program files/microchip/xc32/v4.30/bin/bin/../../lib/gcc/pic32mx/8.3.1/../../../../pic32mx/lib/fpu64\libpic32.a(default-nmi-handler.o)
 .reginfo       0x0000000000000000       0x18 c:/program files/microchip/xc32/v4.30/bin/bin/../../lib/gcc/pic32mx/8.3.1/../../../../pic32mx/lib/fpu64\libpic32.a(default-nmi-handler.o)
 .MIPS.abiflags
                0x0000000000000000       0x18 c:/program files/microchip/xc32/v4.30/bin/bin/../../lib/gcc/pic32mx/8.3.1/../../../../pic32mx/lib/fpu64\libpic32.a(default-nmi-handler.o)
 .xc_stack_usage.hdr
                0x0000000000000000        0xe c:/program files/microchip/xc32/v4.30/bin/bin/../../lib/gcc/pic32mx/8.3.1/../../../../pic32mx/lib/fpu64\libpic32.a(default-nmi-handler.o)
 .xc_stack_usage
                0x0000000000000000       0x1a c:/program files/microchip/xc32/v4.30/bin/bin/../../lib/gcc/pic32mx/8.3.1/../../../../pic32mx/lib/fpu64\libpic32.a(default-nmi-handler.o)
 .data          0x0000000000000000        0x0 c:/program files/microchip/xc32/v4.30/bin/bin/../../lib/gcc/pic32mx/8.3.1/../../../../pic32mx/lib/fpu64\libpic32.a(pic32_data_init_core.o)
 .bss           0x0000000000000000        0x0 c:/program files/microchip/xc32/v4.30/bin/bin/../../lib/gcc/pic32mx/8.3.1/../../../../pic32mx/lib/fpu64\libpic32.a(pic32_data_init_core.o)
 .reginfo       0x0000000000000000       0x18 c:/program files/microchip/xc32/v4.30/bin/bin/../../lib/gcc/pic32mx/8.3.1/../../../../pic32mx/lib/fpu64\libpic32.a(pic32_data_init_core.o)
 .MIPS.abiflags
                0x0000000000000000       0x18 c:/program files/microchip/xc32/v4.30/bin/bin/../../lib/gcc/pic32mx/8.3.1/../../../../pic32mx/lib/fpu64\libpic32.a(pic32_data_init_core.o)
 .xc_stack_usage.hdr
                0x0000000000000000        0xe c:/program files/microchip/xc32/v4.30/bin/bin/../../lib/gcc/pic32mx/8.3.1/../../../../pic32mx/lib/fpu64\libpic32.a(pic32_data_init_core.o)
 .xc_stack_usage
                0x0000000000000000       0x41 c:/program files/microchip/xc32/v4.30/bin/bin/../../lib/gcc/pic32mx/8.3.1/../../../../pic32mx/lib/fpu64\libpic32.a(pic32_data_init_core.o)
 .text          0x0000000000000000        0x0 c:/program files/microchip/xc32/v4.30/bin/bin/../../lib/gcc/pic32mx/8.3.1/../../../../pic32mx/lib/fpu64\libpic32.a(pic32_init_cache.o)
 .data          0x0000000000000000        0x0 c:/program files/microchip/xc32/v4.30/bin/bin/../../lib/gcc/pic32mx/8.3.1/../../../../pic32mx/lib/fpu64\libpic32.a(pic32_init_cache.o)
 .bss           0x0000000000000000        0x0 c:/program files/microchip/xc32/v4.30/bin/bin/../../lib/gcc/pic32mx/8.3.1/../../../../pic32mx/lib/fpu64\libpic32.a(pic32_init_cache.o)
 .reginfo       0x0000000000000000       0x18 c:/program files/microchip/xc32/v4.30/bin/bin/../../lib/gcc/pic32mx/8.3.1/../../../../pic32mx/lib/fpu64\libpic32.a(pic32_init_cache.o)
 .MIPS.abiflags
                0x0000000000000000       0x18 c:/program files/microchip/xc32/v4.30/bin/bin/../../lib/gcc/pic32mx/8.3.1/../../../../pic32mx/lib/fpu64\libpic32.a(pic32_init_cache.o)
 .cache_init.pic32_size_cache
                0x0000000000000000       0x58 c:/program files/microchip/xc32/v4.30/bin/bin/../../lib/gcc/pic32mx/8.3.1/../../../../pic32mx/lib/fpu64\libpic32.a(pic32_init_cache.o)
 .xc_stack_usage.hdr
                0x0000000000000000        0xe c:/program files/microchip/xc32/v4.30/bin/bin/../../lib/gcc/pic32mx/8.3.1/../../../../pic32mx/lib/fpu64\libpic32.a(pic32_init_cache.o)
 .xc_stack_usage
                0x0000000000000000       0x5a c:/program files/microchip/xc32/v4.30/bin/bin/../../lib/gcc/pic32mx/8.3.1/../../../../pic32mx/lib/fpu64\libpic32.a(pic32_init_cache.o)
 .text          0x0000000000000000        0x0 c:/program files/microchip/xc32/v4.30/bin/bin/../../lib/gcc/pic32mx/8.3.1/../../../../pic32mx/lib/fpu64\libpic32.a(pic32_init_tlb_ebi_sqi.o)
 .data          0x0000000000000000        0x0 c:/program files/microchip/xc32/v4.30/bin/bin/../../lib/gcc/pic32mx/8.3.1/../../../../pic32mx/lib/fpu64\libpic32.a(pic32_init_tlb_ebi_sqi.o)
 .bss           0x0000000000000000        0x0 c:/program files/microchip/xc32/v4.30/bin/bin/../../lib/gcc/pic32mx/8.3.1/../../../../pic32mx/lib/fpu64\libpic32.a(pic32_init_tlb_ebi_sqi.o)
 .reginfo       0x0000000000000000       0x18 c:/program files/microchip/xc32/v4.30/bin/bin/../../lib/gcc/pic32mx/8.3.1/../../../../pic32mx/lib/fpu64\libpic32.a(pic32_init_tlb_ebi_sqi.o)
 .MIPS.abiflags
                0x0000000000000000       0x18 c:/program files/microchip/xc32/v4.30/bin/bin/../../lib/gcc/pic32mx/8.3.1/../../../../pic32mx/lib/fpu64\libpic32.a(pic32_init_tlb_ebi_sqi.o)
 .xc_stack_usage.hdr
                0x0000000000000000        0xe c:/program files/microchip/xc32/v4.30/bin/bin/../../lib/gcc/pic32mx/8.3.1/../../../../pic32mx/lib/fpu64\libpic32.a(pic32_init_tlb_ebi_sqi.o)
 .xc_stack_usage
                0x0000000000000000       0x26 c:/program files/microchip/xc32/v4.30/bin/bin/../../lib/gcc/pic32mx/8.3.1/../../../../pic32mx/lib/fpu64\libpic32.a(pic32_init_tlb_ebi_sqi.o)
 .text          0x0000000000000000        0x0 c:/program files/microchip/xc32/v4.30/bin/bin/../../lib/gcc/pic32mx/8.3.1/../../../../pic32mx/lib/fpu64\libpic32.a(general-exception.o)
 .data          0x0000000000000000        0x0 c:/program files/microchip/xc32/v4.30/bin/bin/../../lib/gcc/pic32mx/8.3.1/../../../../pic32mx/lib/fpu64\libpic32.a(general-exception.o)
 .bss           0x0000000000000000        0x0 c:/program files/microchip/xc32/v4.30/bin/bin/../../lib/gcc/pic32mx/8.3.1/../../../../pic32mx/lib/fpu64\libpic32.a(general-exception.o)
 .reginfo       0x0000000000000000       0x18 c:/program files/microchip/xc32/v4.30/bin/bin/../../lib/gcc/pic32mx/8.3.1/../../../../pic32mx/lib/fpu64\libpic32.a(general-exception.o)
 .MIPS.abiflags
                0x0000000000000000       0x18 c:/program files/microchip/xc32/v4.30/bin/bin/../../lib/gcc/pic32mx/8.3.1/../../../../pic32mx/lib/fpu64\libpic32.a(general-exception.o)
 .xc_stack_usage.hdr
                0x0000000000000000        0xe c:/program files/microchip/xc32/v4.30/bin/bin/../../lib/gcc/pic32mx/8.3.1/../../../../pic32mx/lib/fpu64\libpic32.a(general-exception.o)
 .xc_stack_usage
                0x0000000000000000       0x28 c:/program files/microchip/xc32/v4.30/bin/bin/../../lib/gcc/pic32mx/8.3.1/../../../../pic32mx/lib/fpu64\libpic32.a(general-exception.o)
 .text          0x0000000000000000        0x0 c:/program files/microchip/xc32/v4.30/bin/bin/../../lib/gcc/pic32mx/8.3.1/../../../../pic32mx/lib/fpu64\libpic32.a(cache-err-exception.o)
 .data          0x0000000000000000        0x0 c:/program files/microchip/xc32/v4.30/bin/bin/../../lib/gcc/pic32mx/8.3.1/../../../../pic32mx/lib/fpu64\libpic32.a(cache-err-exception.o)
 .bss           0x0000000000000000        0x0 c:/program files/microchip/xc32/v4.30/bin/bin/../../lib/gcc/pic32mx/8.3.1/../../../../pic32mx/lib/fpu64\libpic32.a(cache-err-exception.o)
 .reginfo       0x0000000000000000       0x18 c:/program files/microchip/xc32/v4.30/bin/bin/../../lib/gcc/pic32mx/8.3.1/../../../../pic32mx/lib/fpu64\libpic32.a(cache-err-exception.o)
 .MIPS.abiflags
                0x0000000000000000       0x18 c:/program files/microchip/xc32/v4.30/bin/bin/../../lib/gcc/pic32mx/8.3.1/../../../../pic32mx/lib/fpu64\libpic32.a(cache-err-exception.o)
 .xc_stack_usage.hdr
                0x0000000000000000        0xe c:/program files/microchip/xc32/v4.30/bin/bin/../../lib/gcc/pic32mx/8.3.1/../../../../pic32mx/lib/fpu64\libpic32.a(cache-err-exception.o)
 .xc_stack_usage
                0x0000000000000000       0x2a c:/program files/microchip/xc32/v4.30/bin/bin/../../lib/gcc/pic32mx/8.3.1/../../../../pic32mx/lib/fpu64\libpic32.a(cache-err-exception.o)
 .text          0x0000000000000000        0x0 c:/program files/microchip/xc32/v4.30/bin/bin/../../lib/gcc/pic32mx/8.3.1/../../../../pic32mx/lib/fpu64\libpic32.a(simple-tlb-refill-exception.o)
 .data          0x0000000000000000        0x0 c:/program files/microchip/xc32/v4.30/bin/bin/../../lib/gcc/pic32mx/8.3.1/../../../../pic32mx/lib/fpu64\libpic32.a(simple-tlb-refill-exception.o)
 .bss           0x0000000000000000        0x0 c:/program files/microchip/xc32/v4.30/bin/bin/../../lib/gcc/pic32mx/8.3.1/../../../../pic32mx/lib/fpu64\libpic32.a(simple-tlb-refill-exception.o)
 .reginfo       0x0000000000000000       0x18 c:/program files/microchip/xc32/v4.30/bin/bin/../../lib/gcc/pic32mx/8.3.1/../../../../pic32mx/lib/fpu64\libpic32.a(simple-tlb-refill-exception.o)
 .MIPS.abiflags
                0x0000000000000000       0x18 c:/program files/microchip/xc32/v4.30/bin/bin/../../lib/gcc/pic32mx/8.3.1/../../../../pic32mx/lib/fpu64\libpic32.a(simple-tlb-refill-exception.o)
 .xc_stack_usage.hdr
                0x0000000000000000        0xe c:/program files/microchip/xc32/v4.30/bin/bin/../../lib/gcc/pic32mx/8.3.1/../../../../pic32mx/lib/fpu64\libpic32.a(simple-tlb-refill-exception.o)
 .xc_stack_usage
                0x0000000000000000       0x32 c:/program files/microchip/xc32/v4.30/bin/bin/../../lib/gcc/pic32mx/8.3.1/../../../../pic32mx/lib/fpu64\libpic32.a(simple-tlb-refill-exception.o)
 .text          0x0000000000000000        0x0 c:/program files/microchip/xc32/v4.30/bin/bin/../../lib/gcc/pic32mx/8.3.1/../../../../pic32mx/lib/fpu64\libpic32.a(defaultinterrupt.o)
 .data          0x0000000000000000        0x0 c:/program files/microchip/xc32/v4.30/bin/bin/../../lib/gcc/pic32mx/8.3.1/../../../../pic32mx/lib/fpu64\libpic32.a(defaultinterrupt.o)
 .bss           0x0000000000000000        0x0 c:/program files/microchip/xc32/v4.30/bin/bin/../../lib/gcc/pic32mx/8.3.1/../../../../pic32mx/lib/fpu64\libpic32.a(defaultinterrupt.o)
 .reginfo       0x0000000000000000       0x18 c:/program files/microchip/xc32/v4.30/bin/bin/../../lib/gcc/pic32mx/8.3.1/../../../../pic32mx/lib/fpu64\libpic32.a(defaultinterrupt.o)
 .MIPS.abiflags
                0x0000000000000000       0x18 c:/program files/microchip/xc32/v4.30/bin/bin/../../lib/gcc/pic32mx/8.3.1/../../../../pic32mx/lib/fpu64\libpic32.a(defaultinterrupt.o)
 .xc_stack_usage
                0x0000000000000000       0x1f c:/program files/microchip/xc32/v4.30/bin/bin/../../lib/gcc/pic32mx/8.3.1/../../../../pic32mx/lib/fpu64\libpic32.a(defaultinterrupt.o)
 .xc_stack_usage.hdr
                0x0000000000000000        0xe c:/program files/microchip/xc32/v4.30/bin/bin/../../lib/gcc/pic32mx/8.3.1/../../../../pic32mx/lib/fpu64\libpic32.a(defaultinterrupt.o)
 .text          0x0000000000000000        0x0 c:/program files/microchip/xc32/v4.30/bin/bin/../../lib/gcc/pic32mx/8.3.1/../../../../pic32mx/lib/fpu64\libc-musl.a(exit.o)
 .data          0x0000000000000000        0x0 c:/program files/microchip/xc32/v4.30/bin/bin/../../lib/gcc/pic32mx/8.3.1/../../../../pic32mx/lib/fpu64\libc-musl.a(exit.o)
 .bss           0x0000000000000000        0x0 c:/program files/microchip/xc32/v4.30/bin/bin/../../lib/gcc/pic32mx/8.3.1/../../../../pic32mx/lib/fpu64\libc-musl.a(exit.o)
 .reginfo       0x0000000000000000       0x18 c:/program files/microchip/xc32/v4.30/bin/bin/../../lib/gcc/pic32mx/8.3.1/../../../../pic32mx/lib/fpu64\libc-musl.a(exit.o)
 .MIPS.abiflags
                0x0000000000000000       0x18 c:/program files/microchip/xc32/v4.30/bin/bin/../../lib/gcc/pic32mx/8.3.1/../../../../pic32mx/lib/fpu64\libc-musl.a(exit.o)
 .xc_stack_usage
                0x0000000000000000       0x41 c:/program files/microchip/xc32/v4.30/bin/bin/../../lib/gcc/pic32mx/8.3.1/../../../../pic32mx/lib/fpu64\libc-musl.a(exit.o)
 .xc_stack_usage.hdr
                0x0000000000000000        0xe c:/program files/microchip/xc32/v4.30/bin/bin/../../lib/gcc/pic32mx/8.3.1/../../../../pic32mx/lib/fpu64\libc-musl.a(exit.o)
 .note.GNU-stack
                0x0000000000000000        0x0 c:/program files/microchip/xc32/v4.30/bin/bin/../../lib/gcc/pic32mx/8.3.1/../../../../pic32mx/lib/fpu64\libc-musl.a(exit.o)
 .text          0x0000000000000000        0x0 c:/program files/microchip/xc32/v4.30/bin/bin/../../lib/gcc/pic32mx/8.3.1/../../../../pic32mx/lib/fpu64\libc-musl.a(malloc.o)
 .data          0x0000000000000000        0x0 c:/program files/microchip/xc32/v4.30/bin/bin/../../lib/gcc/pic32mx/8.3.1/../../../../pic32mx/lib/fpu64\libc-musl.a(malloc.o)
 .reginfo       0x0000000000000000       0x18 c:/program files/microchip/xc32/v4.30/bin/bin/../../lib/gcc/pic32mx/8.3.1/../../../../pic32mx/lib/fpu64\libc-musl.a(malloc.o)
 .MIPS.abiflags
                0x0000000000000000       0x18 c:/program files/microchip/xc32/v4.30/bin/bin/../../lib/gcc/pic32mx/8.3.1/../../../../pic32mx/lib/fpu64\libc-musl.a(malloc.o)
 .xc_stack_usage
                0x0000000000000000       0xeb c:/program files/microchip/xc32/v4.30/bin/bin/../../lib/gcc/pic32mx/8.3.1/../../../../pic32mx/lib/fpu64\libc-musl.a(malloc.o)
 .text.__malloc0
                0x0000000000000000       0x50 c:/program files/microchip/xc32/v4.30/bin/bin/../../lib/gcc/pic32mx/8.3.1/../../../../pic32mx/lib/fpu64\libc-musl.a(malloc.o)
 .text.realloc  0x0000000000000000      0x118 c:/program files/microchip/xc32/v4.30/bin/bin/../../lib/gcc/pic32mx/8.3.1/../../../../pic32mx/lib/fpu64\libc-musl.a(malloc.o)
 .xc_stack_usage.hdr
                0x0000000000000000        0xe c:/program files/microchip/xc32/v4.30/bin/bin/../../lib/gcc/pic32mx/8.3.1/../../../../pic32mx/lib/fpu64\libc-musl.a(malloc.o)
 .note.GNU-stack
                0x0000000000000000        0x0 c:/program files/microchip/xc32/v4.30/bin/bin/../../lib/gcc/pic32mx/8.3.1/../../../../pic32mx/lib/fpu64\libc-musl.a(malloc.o)
 .text          0x0000000000000000        0x0 c:/program files/microchip/xc32/v4.30/bin/bin/../../lib/gcc/pic32mx/8.3.1/../../../../pic32mx/lib/fpu64\libc-musl.a(expand_heap.o)
 .data          0x0000000000000000        0x0 c:/program files/microchip/xc32/v4.30/bin/bin/../../lib/gcc/pic32mx/8.3.1/../../../../pic32mx/lib/fpu64\libc-musl.a(expand_heap.o)
 .bss           0x0000000000000000        0x0 c:/program files/microchip/xc32/v4.30/bin/bin/../../lib/gcc/pic32mx/8.3.1/../../../../pic32mx/lib/fpu64\libc-musl.a(expand_heap.o)
 .reginfo       0x0000000000000000       0x18 c:/program files/microchip/xc32/v4.30/bin/bin/../../lib/gcc/pic32mx/8.3.1/../../../../pic32mx/lib/fpu64\libc-musl.a(expand_heap.o)
 .MIPS.abiflags
                0x0000000000000000       0x18 c:/program files/microchip/xc32/v4.30/bin/bin/../../lib/gcc/pic32mx/8.3.1/../../../../pic32mx/lib/fpu64\libc-musl.a(expand_heap.o)
 .xc_stack_usage
                0x0000000000000000       0x1b c:/program files/microchip/xc32/v4.30/bin/bin/../../lib/gcc/pic32mx/8.3.1/../../../../pic32mx/lib/fpu64\libc-musl.a(expand_heap.o)
 .xc_stack_usage.hdr
                0x0000000000000000        0xe c:/program files/microchip/xc32/v4.30/bin/bin/../../lib/gcc/pic32mx/8.3.1/../../../../pic32mx/lib/fpu64\libc-musl.a(expand_heap.o)
 .note.GNU-stack
                0x0000000000000000        0x0 c:/program files/microchip/xc32/v4.30/bin/bin/../../lib/gcc/pic32mx/8.3.1/../../../../pic32mx/lib/fpu64\libc-musl.a(expand_heap.o)
 .text          0x0000000000000000        0x0 c:/program files/microchip/xc32/v4.30/bin/bin/../../lib/gcc/pic32mx/8.3.1/../../../../pic32mx/lib/fpu64\libc-musl.a(printf.o)
 .data          0x0000000000000000        0x0 c:/program files/microchip/xc32/v4.30/bin/bin/../../lib/gcc/pic32mx/8.3.1/../../../../pic32mx/lib/fpu64\libc-musl.a(printf.o)
 .bss           0x0000000000000000        0x0 c:/program files/microchip/xc32/v4.30/bin/bin/../../lib/gcc/pic32mx/8.3.1/../../../../pic32mx/lib/fpu64\libc-musl.a(printf.o)
 .reginfo       0x0000000000000000       0x18 c:/program files/microchip/xc32/v4.30/bin/bin/../../lib/gcc/pic32mx/8.3.1/../../../../pic32mx/lib/fpu64\libc-musl.a(printf.o)
 .MIPS.abiflags
                0x0000000000000000       0x18 c:/program files/microchip/xc32/v4.30/bin/bin/../../lib/gcc/pic32mx/8.3.1/../../../../pic32mx/lib/fpu64\libc-musl.a(printf.o)
 .xc_stack_usage
                0x0000000000000000       0x14 c:/program files/microchip/xc32/v4.30/bin/bin/../../lib/gcc/pic32mx/8.3.1/../../../../pic32mx/lib/fpu64\libc-musl.a(printf.o)
 .xc_stack_usage.hdr
                0x0000000000000000        0xe c:/program files/microchip/xc32/v4.30/bin/bin/../../lib/gcc/pic32mx/8.3.1/../../../../pic32mx/lib/fpu64\libc-musl.a(printf.o)
 .note.GNU-stack
                0x0000000000000000        0x0 c:/program files/microchip/xc32/v4.30/bin/bin/../../lib/gcc/pic32mx/8.3.1/../../../../pic32mx/lib/fpu64\libc-musl.a(printf.o)
 .text          0x0000000000000000        0x0 c:/program files/microchip/xc32/v4.30/bin/bin/../../lib/gcc/pic32mx/8.3.1/../../../../pic32mx/lib/fpu64\libc-musl.a(puts.o)
 .data          0x0000000000000000        0x0 c:/program files/microchip/xc32/v4.30/bin/bin/../../lib/gcc/pic32mx/8.3.1/../../../../pic32mx/lib/fpu64\libc-musl.a(puts.o)
 .bss           0x0000000000000000        0x0 c:/program files/microchip/xc32/v4.30/bin/bin/../../lib/gcc/pic32mx/8.3.1/../../../../pic32mx/lib/fpu64\libc-musl.a(puts.o)
 .reginfo       0x0000000000000000       0x18 c:/program files/microchip/xc32/v4.30/bin/bin/../../lib/gcc/pic32mx/8.3.1/../../../../pic32mx/lib/fpu64\libc-musl.a(puts.o)
 .MIPS.abiflags
                0x0000000000000000       0x18 c:/program files/microchip/xc32/v4.30/bin/bin/../../lib/gcc/pic32mx/8.3.1/../../../../pic32mx/lib/fpu64\libc-musl.a(puts.o)
 .xc_stack_usage
                0x0000000000000000       0x12 c:/program files/microchip/xc32/v4.30/bin/bin/../../lib/gcc/pic32mx/8.3.1/../../../../pic32mx/lib/fpu64\libc-musl.a(puts.o)
 .xc_stack_usage.hdr
                0x0000000000000000        0xe c:/program files/microchip/xc32/v4.30/bin/bin/../../lib/gcc/pic32mx/8.3.1/../../../../pic32mx/lib/fpu64\libc-musl.a(puts.o)
 .note.GNU-stack
                0x0000000000000000        0x0 c:/program files/microchip/xc32/v4.30/bin/bin/../../lib/gcc/pic32mx/8.3.1/../../../../pic32mx/lib/fpu64\libc-musl.a(puts.o)
 .text          0x0000000000000000        0x0 c:/program files/microchip/xc32/v4.30/bin/bin/../../lib/gcc/pic32mx/8.3.1/../../../../pic32mx/lib/fpu64\libc-musl.a(sprintf.o)
 .data          0x0000000000000000        0x0 c:/program files/microchip/xc32/v4.30/bin/bin/../../lib/gcc/pic32mx/8.3.1/../../../../pic32mx/lib/fpu64\libc-musl.a(sprintf.o)
 .bss           0x0000000000000000        0x0 c:/program files/microchip/xc32/v4.30/bin/bin/../../lib/gcc/pic32mx/8.3.1/../../../../pic32mx/lib/fpu64\libc-musl.a(sprintf.o)
 .reginfo       0x0000000000000000       0x18 c:/program files/microchip/xc32/v4.30/bin/bin/../../lib/gcc/pic32mx/8.3.1/../../../../pic32mx/lib/fpu64\libc-musl.a(sprintf.o)
 .MIPS.abiflags
                0x0000000000000000       0x18 c:/program files/microchip/xc32/v4.30/bin/bin/../../lib/gcc/pic32mx/8.3.1/../../../../pic32mx/lib/fpu64\libc-musl.a(sprintf.o)
 .xc_stack_usage
                0x0000000000000000       0x15 c:/program files/microchip/xc32/v4.30/bin/bin/../../lib/gcc/pic32mx/8.3.1/../../../../pic32mx/lib/fpu64\libc-musl.a(sprintf.o)
 .text.sprintf  0x0000000000000000       0x28 c:/program files/microchip/xc32/v4.30/bin/bin/../../lib/gcc/pic32mx/8.3.1/../../../../pic32mx/lib/fpu64\libc-musl.a(sprintf.o)
 .xc_stack_usage.hdr
                0x0000000000000000        0xe c:/program files/microchip/xc32/v4.30/bin/bin/../../lib/gcc/pic32mx/8.3.1/../../../../pic32mx/lib/fpu64\libc-musl.a(sprintf.o)
 .note.GNU-stack
                0x0000000000000000        0x0 c:/program files/microchip/xc32/v4.30/bin/bin/../../lib/gcc/pic32mx/8.3.1/../../../../pic32mx/lib/fpu64\libc-musl.a(sprintf.o)
 .text          0x0000000000000000        0x0 c:/program files/microchip/xc32/v4.30/bin/bin/../../lib/gcc/pic32mx/8.3.1/../../../../pic32mx/lib/fpu64\libc-musl.a(vsprintf.o)
 .data          0x0000000000000000        0x0 c:/program files/microchip/xc32/v4.30/bin/bin/../../lib/gcc/pic32mx/8.3.1/../../../../pic32mx/lib/fpu64\libc-musl.a(vsprintf.o)
 .bss           0x0000000000000000        0x0 c:/program files/microchip/xc32/v4.30/bin/bin/../../lib/gcc/pic32mx/8.3.1/../../../../pic32mx/lib/fpu64\libc-musl.a(vsprintf.o)
 .reginfo       0x0000000000000000       0x18 c:/program files/microchip/xc32/v4.30/bin/bin/../../lib/gcc/pic32mx/8.3.1/../../../../pic32mx/lib/fpu64\libc-musl.a(vsprintf.o)
 .MIPS.abiflags
                0x0000000000000000       0x18 c:/program files/microchip/xc32/v4.30/bin/bin/../../lib/gcc/pic32mx/8.3.1/../../../../pic32mx/lib/fpu64\libc-musl.a(vsprintf.o)
 .xc_stack_usage
                0x0000000000000000       0x16 c:/program files/microchip/xc32/v4.30/bin/bin/../../lib/gcc/pic32mx/8.3.1/../../../../pic32mx/lib/fpu64\libc-musl.a(vsprintf.o)
 .text.vsprintf
                0x0000000000000000       0x28 c:/program files/microchip/xc32/v4.30/bin/bin/../../lib/gcc/pic32mx/8.3.1/../../../../pic32mx/lib/fpu64\libc-musl.a(vsprintf.o)
 .xc_stack_usage.hdr
                0x0000000000000000        0xe c:/program files/microchip/xc32/v4.30/bin/bin/../../lib/gcc/pic32mx/8.3.1/../../../../pic32mx/lib/fpu64\libc-musl.a(vsprintf.o)
 .note.GNU-stack
                0x0000000000000000        0x0 c:/program files/microchip/xc32/v4.30/bin/bin/../../lib/gcc/pic32mx/8.3.1/../../../../pic32mx/lib/fpu64\libc-musl.a(vsprintf.o)
 .text          0x0000000000000000        0x0 c:/program files/microchip/xc32/v4.30/bin/bin/../../lib/gcc/pic32mx/8.3.1/../../../../pic32mx/lib/fpu64\libc-musl.a(strcat.o)
 .data          0x0000000000000000        0x0 c:/program files/microchip/xc32/v4.30/bin/bin/../../lib/gcc/pic32mx/8.3.1/../../../../pic32mx/lib/fpu64\libc-musl.a(strcat.o)
 .bss           0x0000000000000000        0x0 c:/program files/microchip/xc32/v4.30/bin/bin/../../lib/gcc/pic32mx/8.3.1/../../../../pic32mx/lib/fpu64\libc-musl.a(strcat.o)
 .reginfo       0x0000000000000000       0x18 c:/program files/microchip/xc32/v4.30/bin/bin/../../lib/gcc/pic32mx/8.3.1/../../../../pic32mx/lib/fpu64\libc-musl.a(strcat.o)
 .MIPS.abiflags
                0x0000000000000000       0x18 c:/program files/microchip/xc32/v4.30/bin/bin/../../lib/gcc/pic32mx/8.3.1/../../../../pic32mx/lib/fpu64\libc-musl.a(strcat.o)
 .xc_stack_usage
                0x0000000000000000       0x14 c:/program files/microchip/xc32/v4.30/bin/bin/../../lib/gcc/pic32mx/8.3.1/../../../../pic32mx/lib/fpu64\libc-musl.a(strcat.o)
 .xc_stack_usage.hdr
                0x0000000000000000        0xe c:/program files/microchip/xc32/v4.30/bin/bin/../../lib/gcc/pic32mx/8.3.1/../../../../pic32mx/lib/fpu64\libc-musl.a(strcat.o)
 .note.GNU-stack
                0x0000000000000000        0x0 c:/program files/microchip/xc32/v4.30/bin/bin/../../lib/gcc/pic32mx/8.3.1/../../../../pic32mx/lib/fpu64\libc-musl.a(strcat.o)
 .text          0x0000000000000000        0x0 c:/program files/microchip/xc32/v4.30/bin/bin/../../lib/gcc/pic32mx/8.3.1/../../../../pic32mx/lib/fpu64\libc-musl.a(strncpy.o)
 .data          0x0000000000000000        0x0 c:/program files/microchip/xc32/v4.30/bin/bin/../../lib/gcc/pic32mx/8.3.1/../../../../pic32mx/lib/fpu64\libc-musl.a(strncpy.o)
 .bss           0x0000000000000000        0x0 c:/program files/microchip/xc32/v4.30/bin/bin/../../lib/gcc/pic32mx/8.3.1/../../../../pic32mx/lib/fpu64\libc-musl.a(strncpy.o)
 .reginfo       0x0000000000000000       0x18 c:/program files/microchip/xc32/v4.30/bin/bin/../../lib/gcc/pic32mx/8.3.1/../../../../pic32mx/lib/fpu64\libc-musl.a(strncpy.o)
 .MIPS.abiflags
                0x0000000000000000       0x18 c:/program files/microchip/xc32/v4.30/bin/bin/../../lib/gcc/pic32mx/8.3.1/../../../../pic32mx/lib/fpu64\libc-musl.a(strncpy.o)
 .xc_stack_usage
                0x0000000000000000       0x15 c:/program files/microchip/xc32/v4.30/bin/bin/../../lib/gcc/pic32mx/8.3.1/../../../../pic32mx/lib/fpu64\libc-musl.a(strncpy.o)
 .xc_stack_usage.hdr
                0x0000000000000000        0xe c:/program files/microchip/xc32/v4.30/bin/bin/../../lib/gcc/pic32mx/8.3.1/../../../../pic32mx/lib/fpu64\libc-musl.a(strncpy.o)
 .note.GNU-stack
                0x0000000000000000        0x0 c:/program files/microchip/xc32/v4.30/bin/bin/../../lib/gcc/pic32mx/8.3.1/../../../../pic32mx/lib/fpu64\libc-musl.a(strncpy.o)
 .text          0x0000000000000000        0x0 c:/program files/microchip/xc32/v4.30/bin/bin/../../lib/gcc/pic32mx/8.3.1/../../../../pic32mx/lib/fpu64\libc-musl.a(strtok.o)
 .data          0x0000000000000000        0x0 c:/program files/microchip/xc32/v4.30/bin/bin/../../lib/gcc/pic32mx/8.3.1/../../../../pic32mx/lib/fpu64\libc-musl.a(strtok.o)
 .reginfo       0x0000000000000000       0x18 c:/program files/microchip/xc32/v4.30/bin/bin/../../lib/gcc/pic32mx/8.3.1/../../../../pic32mx/lib/fpu64\libc-musl.a(strtok.o)
 .MIPS.abiflags
                0x0000000000000000       0x18 c:/program files/microchip/xc32/v4.30/bin/bin/../../lib/gcc/pic32mx/8.3.1/../../../../pic32mx/lib/fpu64\libc-musl.a(strtok.o)
 .xc_stack_usage
                0x0000000000000000       0x14 c:/program files/microchip/xc32/v4.30/bin/bin/../../lib/gcc/pic32mx/8.3.1/../../../../pic32mx/lib/fpu64\libc-musl.a(strtok.o)
 .xc_stack_usage.hdr
                0x0000000000000000        0xe c:/program files/microchip/xc32/v4.30/bin/bin/../../lib/gcc/pic32mx/8.3.1/../../../../pic32mx/lib/fpu64\libc-musl.a(strtok.o)
 .note.GNU-stack
                0x0000000000000000        0x0 c:/program files/microchip/xc32/v4.30/bin/bin/../../lib/gcc/pic32mx/8.3.1/../../../../pic32mx/lib/fpu64\libc-musl.a(strtok.o)
 .text          0x0000000000000000        0x0 c:/program files/microchip/xc32/v4.30/bin/bin/../../lib/gcc/pic32mx/8.3.1/../../../../pic32mx/lib/fpu64\libc-musl.a(_Exit.o)
 .data          0x0000000000000000        0x0 c:/program files/microchip/xc32/v4.30/bin/bin/../../lib/gcc/pic32mx/8.3.1/../../../../pic32mx/lib/fpu64\libc-musl.a(_Exit.o)
 .bss           0x0000000000000000        0x0 c:/program files/microchip/xc32/v4.30/bin/bin/../../lib/gcc/pic32mx/8.3.1/../../../../pic32mx/lib/fpu64\libc-musl.a(_Exit.o)
 .reginfo       0x0000000000000000       0x18 c:/program files/microchip/xc32/v4.30/bin/bin/../../lib/gcc/pic32mx/8.3.1/../../../../pic32mx/lib/fpu64\libc-musl.a(_Exit.o)
 .MIPS.abiflags
                0x0000000000000000       0x18 c:/program files/microchip/xc32/v4.30/bin/bin/../../lib/gcc/pic32mx/8.3.1/../../../../pic32mx/lib/fpu64\libc-musl.a(_Exit.o)
 .xc_stack_usage
                0x0000000000000000       0x13 c:/program files/microchip/xc32/v4.30/bin/bin/../../lib/gcc/pic32mx/8.3.1/../../../../pic32mx/lib/fpu64\libc-musl.a(_Exit.o)
 .xc_stack_usage.hdr
                0x0000000000000000        0xe c:/program files/microchip/xc32/v4.30/bin/bin/../../lib/gcc/pic32mx/8.3.1/../../../../pic32mx/lib/fpu64\libc-musl.a(_Exit.o)
 .note.GNU-stack
                0x0000000000000000        0x0 c:/program files/microchip/xc32/v4.30/bin/bin/../../lib/gcc/pic32mx/8.3.1/../../../../pic32mx/lib/fpu64\libc-musl.a(_Exit.o)
 .text          0x0000000000000000        0x0 c:/program files/microchip/xc32/v4.30/bin/bin/../../lib/gcc/pic32mx/8.3.1/../../../../pic32mx/lib/fpu64\libc-musl.a(libc.o)
 .data          0x0000000000000000        0x0 c:/program files/microchip/xc32/v4.30/bin/bin/../../lib/gcc/pic32mx/8.3.1/../../../../pic32mx/lib/fpu64\libc-musl.a(libc.o)
 .reginfo       0x0000000000000000       0x18 c:/program files/microchip/xc32/v4.30/bin/bin/../../lib/gcc/pic32mx/8.3.1/../../../../pic32mx/lib/fpu64\libc-musl.a(libc.o)
 .MIPS.abiflags
                0x0000000000000000       0x18 c:/program files/microchip/xc32/v4.30/bin/bin/../../lib/gcc/pic32mx/8.3.1/../../../../pic32mx/lib/fpu64\libc-musl.a(libc.o)
 .xc_stack_usage.hdr
                0x0000000000000000        0xe c:/program files/microchip/xc32/v4.30/bin/bin/../../lib/gcc/pic32mx/8.3.1/../../../../pic32mx/lib/fpu64\libc-musl.a(libc.o)
 .note.GNU-stack
                0x0000000000000000        0x0 c:/program files/microchip/xc32/v4.30/bin/bin/../../lib/gcc/pic32mx/8.3.1/../../../../pic32mx/lib/fpu64\libc-musl.a(libc.o)
 .text          0x0000000000000000        0x0 c:/program files/microchip/xc32/v4.30/bin/bin/../../lib/gcc/pic32mx/8.3.1/../../../../pic32mx/lib/fpu64\libc-musl.a(fputs.o)
 .data          0x0000000000000000        0x0 c:/program files/microchip/xc32/v4.30/bin/bin/../../lib/gcc/pic32mx/8.3.1/../../../../pic32mx/lib/fpu64\libc-musl.a(fputs.o)
 .bss           0x0000000000000000        0x0 c:/program files/microchip/xc32/v4.30/bin/bin/../../lib/gcc/pic32mx/8.3.1/../../../../pic32mx/lib/fpu64\libc-musl.a(fputs.o)
 .reginfo       0x0000000000000000       0x18 c:/program files/microchip/xc32/v4.30/bin/bin/../../lib/gcc/pic32mx/8.3.1/../../../../pic32mx/lib/fpu64\libc-musl.a(fputs.o)
 .MIPS.abiflags
                0x0000000000000000       0x18 c:/program files/microchip/xc32/v4.30/bin/bin/../../lib/gcc/pic32mx/8.3.1/../../../../pic32mx/lib/fpu64\libc-musl.a(fputs.o)
 .xc_stack_usage
                0x0000000000000000       0x13 c:/program files/microchip/xc32/v4.30/bin/bin/../../lib/gcc/pic32mx/8.3.1/../../../../pic32mx/lib/fpu64\libc-musl.a(fputs.o)
 .xc_stack_usage.hdr
                0x0000000000000000        0xe c:/program files/microchip/xc32/v4.30/bin/bin/../../lib/gcc/pic32mx/8.3.1/../../../../pic32mx/lib/fpu64\libc-musl.a(fputs.o)
 .note.GNU-stack
                0x0000000000000000        0x0 c:/program files/microchip/xc32/v4.30/bin/bin/../../lib/gcc/pic32mx/8.3.1/../../../../pic32mx/lib/fpu64\libc-musl.a(fputs.o)
 .text          0x0000000000000000        0x0 c:/program files/microchip/xc32/v4.30/bin/bin/../../lib/gcc/pic32mx/8.3.1/../../../../pic32mx/lib/fpu64\libc-musl.a(fwrite.o)
 .data          0x0000000000000000        0x0 c:/program files/microchip/xc32/v4.30/bin/bin/../../lib/gcc/pic32mx/8.3.1/../../../../pic32mx/lib/fpu64\libc-musl.a(fwrite.o)
 .bss           0x0000000000000000        0x0 c:/program files/microchip/xc32/v4.30/bin/bin/../../lib/gcc/pic32mx/8.3.1/../../../../pic32mx/lib/fpu64\libc-musl.a(fwrite.o)
 .reginfo       0x0000000000000000       0x18 c:/program files/microchip/xc32/v4.30/bin/bin/../../lib/gcc/pic32mx/8.3.1/../../../../pic32mx/lib/fpu64\libc-musl.a(fwrite.o)
 .MIPS.abiflags
                0x0000000000000000       0x18 c:/program files/microchip/xc32/v4.30/bin/bin/../../lib/gcc/pic32mx/8.3.1/../../../../pic32mx/lib/fpu64\libc-musl.a(fwrite.o)
 .xc_stack_usage
                0x0000000000000000       0x2e c:/program files/microchip/xc32/v4.30/bin/bin/../../lib/gcc/pic32mx/8.3.1/../../../../pic32mx/lib/fpu64\libc-musl.a(fwrite.o)
 .xc_stack_usage.hdr
                0x0000000000000000        0xe c:/program files/microchip/xc32/v4.30/bin/bin/../../lib/gcc/pic32mx/8.3.1/../../../../pic32mx/lib/fpu64\libc-musl.a(fwrite.o)
 .note.GNU-stack
                0x0000000000000000        0x0 c:/program files/microchip/xc32/v4.30/bin/bin/../../lib/gcc/pic32mx/8.3.1/../../../../pic32mx/lib/fpu64\libc-musl.a(fwrite.o)
 .text          0x0000000000000000        0x0 c:/program files/microchip/xc32/v4.30/bin/bin/../../lib/gcc/pic32mx/8.3.1/../../../../pic32mx/lib/fpu64\libc-musl.a(putc.o)
 .data          0x0000000000000000        0x0 c:/program files/microchip/xc32/v4.30/bin/bin/../../lib/gcc/pic32mx/8.3.1/../../../../pic32mx/lib/fpu64\libc-musl.a(putc.o)
 .bss           0x0000000000000000        0x0 c:/program files/microchip/xc32/v4.30/bin/bin/../../lib/gcc/pic32mx/8.3.1/../../../../pic32mx/lib/fpu64\libc-musl.a(putc.o)
 .reginfo       0x0000000000000000       0x18 c:/program files/microchip/xc32/v4.30/bin/bin/../../lib/gcc/pic32mx/8.3.1/../../../../pic32mx/lib/fpu64\libc-musl.a(putc.o)
 .MIPS.abiflags
                0x0000000000000000       0x18 c:/program files/microchip/xc32/v4.30/bin/bin/../../lib/gcc/pic32mx/8.3.1/../../../../pic32mx/lib/fpu64\libc-musl.a(putc.o)
 .xc_stack_usage
                0x0000000000000000       0x4f c:/program files/microchip/xc32/v4.30/bin/bin/../../lib/gcc/pic32mx/8.3.1/../../../../pic32mx/lib/fpu64\libc-musl.a(putc.o)
 .xc_stack_usage.hdr
                0x0000000000000000        0xe c:/program files/microchip/xc32/v4.30/bin/bin/../../lib/gcc/pic32mx/8.3.1/../../../../pic32mx/lib/fpu64\libc-musl.a(putc.o)
 .note.GNU-stack
                0x0000000000000000        0x0 c:/program files/microchip/xc32/v4.30/bin/bin/../../lib/gcc/pic32mx/8.3.1/../../../../pic32mx/lib/fpu64\libc-musl.a(putc.o)
 .text          0x0000000000000000        0x0 c:/program files/microchip/xc32/v4.30/bin/bin/../../lib/gcc/pic32mx/8.3.1/../../../../pic32mx/lib/fpu64\libc-musl.a(vfprintf.o)
 .data          0x0000000000000000        0x0 c:/program files/microchip/xc32/v4.30/bin/bin/../../lib/gcc/pic32mx/8.3.1/../../../../pic32mx/lib/fpu64\libc-musl.a(vfprintf.o)
 .bss           0x0000000000000000        0x0 c:/program files/microchip/xc32/v4.30/bin/bin/../../lib/gcc/pic32mx/8.3.1/../../../../pic32mx/lib/fpu64\libc-musl.a(vfprintf.o)
 .reginfo       0x0000000000000000       0x18 c:/program files/microchip/xc32/v4.30/bin/bin/../../lib/gcc/pic32mx/8.3.1/../../../../pic32mx/lib/fpu64\libc-musl.a(vfprintf.o)
 .MIPS.abiflags
                0x0000000000000000       0x18 c:/program files/microchip/xc32/v4.30/bin/bin/../../lib/gcc/pic32mx/8.3.1/../../../../pic32mx/lib/fpu64\libc-musl.a(vfprintf.o)
 .xc_stack_usage
                0x0000000000000000       0x38 c:/program files/microchip/xc32/v4.30/bin/bin/../../lib/gcc/pic32mx/8.3.1/../../../../pic32mx/lib/fpu64\libc-musl.a(vfprintf.o)
 .xc_stack_usage.hdr
                0x0000000000000000        0xe c:/program files/microchip/xc32/v4.30/bin/bin/../../lib/gcc/pic32mx/8.3.1/../../../../pic32mx/lib/fpu64\libc-musl.a(vfprintf.o)
 .note.GNU-stack
                0x0000000000000000        0x0 c:/program files/microchip/xc32/v4.30/bin/bin/../../lib/gcc/pic32mx/8.3.1/../../../../pic32mx/lib/fpu64\libc-musl.a(vfprintf.o)
 .text          0x0000000000000000        0x0 c:/program files/microchip/xc32/v4.30/bin/bin/../../lib/gcc/pic32mx/8.3.1/../../../../pic32mx/lib/fpu64\libc-musl.a(vsnprintf.o)
 .data          0x0000000000000000        0x0 c:/program files/microchip/xc32/v4.30/bin/bin/../../lib/gcc/pic32mx/8.3.1/../../../../pic32mx/lib/fpu64\libc-musl.a(vsnprintf.o)
 .bss           0x0000000000000000        0x0 c:/program files/microchip/xc32/v4.30/bin/bin/../../lib/gcc/pic32mx/8.3.1/../../../../pic32mx/lib/fpu64\libc-musl.a(vsnprintf.o)
 .reginfo       0x0000000000000000       0x18 c:/program files/microchip/xc32/v4.30/bin/bin/../../lib/gcc/pic32mx/8.3.1/../../../../pic32mx/lib/fpu64\libc-musl.a(vsnprintf.o)
 .MIPS.abiflags
                0x0000000000000000       0x18 c:/program files/microchip/xc32/v4.30/bin/bin/../../lib/gcc/pic32mx/8.3.1/../../../../pic32mx/lib/fpu64\libc-musl.a(vsnprintf.o)
 .xc_stack_usage
                0x0000000000000000       0x17 c:/program files/microchip/xc32/v4.30/bin/bin/../../lib/gcc/pic32mx/8.3.1/../../../../pic32mx/lib/fpu64\libc-musl.a(vsnprintf.o)
 .text.vsnprintf
                0x0000000000000000       0xbc c:/program files/microchip/xc32/v4.30/bin/bin/../../lib/gcc/pic32mx/8.3.1/../../../../pic32mx/lib/fpu64\libc-musl.a(vsnprintf.o)
 .xc_stack_usage.hdr
                0x0000000000000000        0xe c:/program files/microchip/xc32/v4.30/bin/bin/../../lib/gcc/pic32mx/8.3.1/../../../../pic32mx/lib/fpu64\libc-musl.a(vsnprintf.o)
 .note.GNU-stack
                0x0000000000000000        0x0 c:/program files/microchip/xc32/v4.30/bin/bin/../../lib/gcc/pic32mx/8.3.1/../../../../pic32mx/lib/fpu64\libc-musl.a(vsnprintf.o)
 .text          0x0000000000000000        0x0 c:/program files/microchip/xc32/v4.30/bin/bin/../../lib/gcc/pic32mx/8.3.1/../../../../pic32mx/lib/fpu64\libc-musl.a(stdout.o)
 .bss           0x0000000000000000        0x0 c:/program files/microchip/xc32/v4.30/bin/bin/../../lib/gcc/pic32mx/8.3.1/../../../../pic32mx/lib/fpu64\libc-musl.a(stdout.o)
 .reginfo       0x0000000000000000       0x18 c:/program files/microchip/xc32/v4.30/bin/bin/../../lib/gcc/pic32mx/8.3.1/../../../../pic32mx/lib/fpu64\libc-musl.a(stdout.o)
 .MIPS.abiflags
                0x0000000000000000       0x18 c:/program files/microchip/xc32/v4.30/bin/bin/../../lib/gcc/pic32mx/8.3.1/../../../../pic32mx/lib/fpu64\libc-musl.a(stdout.o)
 .xc_stack_usage
                0x0000000000000000       0x51 c:/program files/microchip/xc32/v4.30/bin/bin/../../lib/gcc/pic32mx/8.3.1/../../../../pic32mx/lib/fpu64\libc-musl.a(stdout.o)
 .text.__init_stdout
                0x0000000000000000       0x20 c:/program files/microchip/xc32/v4.30/bin/bin/../../lib/gcc/pic32mx/8.3.1/../../../../pic32mx/lib/fpu64\libc-musl.a(stdout.o)
 .xc_stack_usage.hdr
                0x0000000000000000        0xe c:/program files/microchip/xc32/v4.30/bin/bin/../../lib/gcc/pic32mx/8.3.1/../../../../pic32mx/lib/fpu64\libc-musl.a(stdout.o)
 .note.GNU-stack
                0x0000000000000000        0x0 c:/program files/microchip/xc32/v4.30/bin/bin/../../lib/gcc/pic32mx/8.3.1/../../../../pic32mx/lib/fpu64\libc-musl.a(stdout.o)
 .text          0x0000000000000000        0x0 c:/program files/microchip/xc32/v4.30/bin/bin/../../lib/gcc/pic32mx/8.3.1/../../../../pic32mx/lib/fpu64\libc-musl.a(stpncpy.o)
 .data          0x0000000000000000        0x0 c:/program files/microchip/xc32/v4.30/bin/bin/../../lib/gcc/pic32mx/8.3.1/../../../../pic32mx/lib/fpu64\libc-musl.a(stpncpy.o)
 .bss           0x0000000000000000        0x0 c:/program files/microchip/xc32/v4.30/bin/bin/../../lib/gcc/pic32mx/8.3.1/../../../../pic32mx/lib/fpu64\libc-musl.a(stpncpy.o)
 .reginfo       0x0000000000000000       0x18 c:/program files/microchip/xc32/v4.30/bin/bin/../../lib/gcc/pic32mx/8.3.1/../../../../pic32mx/lib/fpu64\libc-musl.a(stpncpy.o)
 .MIPS.abiflags
                0x0000000000000000       0x18 c:/program files/microchip/xc32/v4.30/bin/bin/../../lib/gcc/pic32mx/8.3.1/../../../../pic32mx/lib/fpu64\libc-musl.a(stpncpy.o)
 .xc_stack_usage
                0x0000000000000000       0x15 c:/program files/microchip/xc32/v4.30/bin/bin/../../lib/gcc/pic32mx/8.3.1/../../../../pic32mx/lib/fpu64\libc-musl.a(stpncpy.o)
 .xc_stack_usage.hdr
                0x0000000000000000        0xe c:/program files/microchip/xc32/v4.30/bin/bin/../../lib/gcc/pic32mx/8.3.1/../../../../pic32mx/lib/fpu64\libc-musl.a(stpncpy.o)
 .note.GNU-stack
                0x0000000000000000        0x0 c:/program files/microchip/xc32/v4.30/bin/bin/../../lib/gcc/pic32mx/8.3.1/../../../../pic32mx/lib/fpu64\libc-musl.a(stpncpy.o)
 .text          0x0000000000000000        0x0 c:/program files/microchip/xc32/v4.30/bin/bin/../../lib/gcc/pic32mx/8.3.1/../../../../pic32mx/lib/fpu64\libc-musl.a(strcspn.o)
 .data          0x0000000000000000        0x0 c:/program files/microchip/xc32/v4.30/bin/bin/../../lib/gcc/pic32mx/8.3.1/../../../../pic32mx/lib/fpu64\libc-musl.a(strcspn.o)
 .bss           0x0000000000000000        0x0 c:/program files/microchip/xc32/v4.30/bin/bin/../../lib/gcc/pic32mx/8.3.1/../../../../pic32mx/lib/fpu64\libc-musl.a(strcspn.o)
 .reginfo       0x0000000000000000       0x18 c:/program files/microchip/xc32/v4.30/bin/bin/../../lib/gcc/pic32mx/8.3.1/../../../../pic32mx/lib/fpu64\libc-musl.a(strcspn.o)
 .MIPS.abiflags
                0x0000000000000000       0x18 c:/program files/microchip/xc32/v4.30/bin/bin/../../lib/gcc/pic32mx/8.3.1/../../../../pic32mx/lib/fpu64\libc-musl.a(strcspn.o)
 .xc_stack_usage
                0x0000000000000000       0x15 c:/program files/microchip/xc32/v4.30/bin/bin/../../lib/gcc/pic32mx/8.3.1/../../../../pic32mx/lib/fpu64\libc-musl.a(strcspn.o)
 .xc_stack_usage.hdr
                0x0000000000000000        0xe c:/program files/microchip/xc32/v4.30/bin/bin/../../lib/gcc/pic32mx/8.3.1/../../../../pic32mx/lib/fpu64\libc-musl.a(strcspn.o)
 .note.GNU-stack
                0x0000000000000000        0x0 c:/program files/microchip/xc32/v4.30/bin/bin/../../lib/gcc/pic32mx/8.3.1/../../../../pic32mx/lib/fpu64\libc-musl.a(strcspn.o)
 .text          0x0000000000000000        0x0 c:/program files/microchip/xc32/v4.30/bin/bin/../../lib/gcc/pic32mx/8.3.1/../../../../pic32mx/lib/fpu64\libc-musl.a(strspn.o)
 .data          0x0000000000000000        0x0 c:/program files/microchip/xc32/v4.30/bin/bin/../../lib/gcc/pic32mx/8.3.1/../../../../pic32mx/lib/fpu64\libc-musl.a(strspn.o)
 .bss           0x0000000000000000        0x0 c:/program files/microchip/xc32/v4.30/bin/bin/../../lib/gcc/pic32mx/8.3.1/../../../../pic32mx/lib/fpu64\libc-musl.a(strspn.o)
 .reginfo       0x0000000000000000       0x18 c:/program files/microchip/xc32/v4.30/bin/bin/../../lib/gcc/pic32mx/8.3.1/../../../../pic32mx/lib/fpu64\libc-musl.a(strspn.o)
 .MIPS.abiflags
                0x0000000000000000       0x18 c:/program files/microchip/xc32/v4.30/bin/bin/../../lib/gcc/pic32mx/8.3.1/../../../../pic32mx/lib/fpu64\libc-musl.a(strspn.o)
 .xc_stack_usage
                0x0000000000000000       0x14 c:/program files/microchip/xc32/v4.30/bin/bin/../../lib/gcc/pic32mx/8.3.1/../../../../pic32mx/lib/fpu64\libc-musl.a(strspn.o)
 .xc_stack_usage.hdr
                0x0000000000000000        0xe c:/program files/microchip/xc32/v4.30/bin/bin/../../lib/gcc/pic32mx/8.3.1/../../../../pic32mx/lib/fpu64\libc-musl.a(strspn.o)
 .note.GNU-stack
                0x0000000000000000        0x0 c:/program files/microchip/xc32/v4.30/bin/bin/../../lib/gcc/pic32mx/8.3.1/../../../../pic32mx/lib/fpu64\libc-musl.a(strspn.o)
 .text          0x0000000000000000        0x0 c:/program files/microchip/xc32/v4.30/bin/bin/../../lib/gcc/pic32mx/8.3.1/../../../../pic32mx/lib/fpu64\libc-musl.a(__io_fmt_needed.o)
 .data          0x0000000000000000        0x0 c:/program files/microchip/xc32/v4.30/bin/bin/../../lib/gcc/pic32mx/8.3.1/../../../../pic32mx/lib/fpu64\libc-musl.a(__io_fmt_needed.o)
 .bss           0x0000000000000000        0x0 c:/program files/microchip/xc32/v4.30/bin/bin/../../lib/gcc/pic32mx/8.3.1/../../../../pic32mx/lib/fpu64\libc-musl.a(__io_fmt_needed.o)
 .reginfo       0x0000000000000000       0x18 c:/program files/microchip/xc32/v4.30/bin/bin/../../lib/gcc/pic32mx/8.3.1/../../../../pic32mx/lib/fpu64\libc-musl.a(__io_fmt_needed.o)
 .MIPS.abiflags
                0x0000000000000000       0x18 c:/program files/microchip/xc32/v4.30/bin/bin/../../lib/gcc/pic32mx/8.3.1/../../../../pic32mx/lib/fpu64\libc-musl.a(__io_fmt_needed.o)
 .xc_stack_usage
                0x0000000000000000       0x1d c:/program files/microchip/xc32/v4.30/bin/bin/../../lib/gcc/pic32mx/8.3.1/../../../../pic32mx/lib/fpu64\libc-musl.a(__io_fmt_needed.o)
 .xc_stack_usage.hdr
                0x0000000000000000        0xe c:/program files/microchip/xc32/v4.30/bin/bin/../../lib/gcc/pic32mx/8.3.1/../../../../pic32mx/lib/fpu64\libc-musl.a(__io_fmt_needed.o)
 .note.GNU-stack
                0x0000000000000000        0x0 c:/program files/microchip/xc32/v4.30/bin/bin/../../lib/gcc/pic32mx/8.3.1/../../../../pic32mx/lib/fpu64\libc-musl.a(__io_fmt_needed.o)
 .text          0x0000000000000000        0x0 c:/program files/microchip/xc32/v4.30/bin/bin/../../lib/gcc/pic32mx/8.3.1/../../../../pic32mx/lib/fpu64\libc-musl.a(__io_init_needed.o)
 .data          0x0000000000000000        0x0 c:/program files/microchip/xc32/v4.30/bin/bin/../../lib/gcc/pic32mx/8.3.1/../../../../pic32mx/lib/fpu64\libc-musl.a(__io_init_needed.o)
 .bss           0x0000000000000000        0x0 c:/program files/microchip/xc32/v4.30/bin/bin/../../lib/gcc/pic32mx/8.3.1/../../../../pic32mx/lib/fpu64\libc-musl.a(__io_init_needed.o)
 .reginfo       0x0000000000000000       0x18 c:/program files/microchip/xc32/v4.30/bin/bin/../../lib/gcc/pic32mx/8.3.1/../../../../pic32mx/lib/fpu64\libc-musl.a(__io_init_needed.o)
 .MIPS.abiflags
                0x0000000000000000       0x18 c:/program files/microchip/xc32/v4.30/bin/bin/../../lib/gcc/pic32mx/8.3.1/../../../../pic32mx/lib/fpu64\libc-musl.a(__io_init_needed.o)
 .xc_stack_usage
                0x0000000000000000       0x40 c:/program files/microchip/xc32/v4.30/bin/bin/../../lib/gcc/pic32mx/8.3.1/../../../../pic32mx/lib/fpu64\libc-musl.a(__io_init_needed.o)
 .xc_stack_usage.hdr
                0x0000000000000000        0xe c:/program files/microchip/xc32/v4.30/bin/bin/../../lib/gcc/pic32mx/8.3.1/../../../../pic32mx/lib/fpu64\libc-musl.a(__io_init_needed.o)
 .note.GNU-stack
                0x0000000000000000        0x0 c:/program files/microchip/xc32/v4.30/bin/bin/../../lib/gcc/pic32mx/8.3.1/../../../../pic32mx/lib/fpu64\libc-musl.a(__io_init_needed.o)
 .text          0x0000000000000000        0x0 c:/program files/microchip/xc32/v4.30/bin/bin/../../lib/gcc/pic32mx/8.3.1/../../../../pic32mx/lib/fpu64\libc-musl.a(__out.o)
 .data          0x0000000000000000        0x0 c:/program files/microchip/xc32/v4.30/bin/bin/../../lib/gcc/pic32mx/8.3.1/../../../../pic32mx/lib/fpu64\libc-musl.a(__out.o)
 .bss           0x0000000000000000        0x0 c:/program files/microchip/xc32/v4.30/bin/bin/../../lib/gcc/pic32mx/8.3.1/../../../../pic32mx/lib/fpu64\libc-musl.a(__out.o)
 .reginfo       0x0000000000000000       0x18 c:/program files/microchip/xc32/v4.30/bin/bin/../../lib/gcc/pic32mx/8.3.1/../../../../pic32mx/lib/fpu64\libc-musl.a(__out.o)
 .MIPS.abiflags
                0x0000000000000000       0x18 c:/program files/microchip/xc32/v4.30/bin/bin/../../lib/gcc/pic32mx/8.3.1/../../../../pic32mx/lib/fpu64\libc-musl.a(__out.o)
 .xc_stack_usage
                0x0000000000000000       0x2d c:/program files/microchip/xc32/v4.30/bin/bin/../../lib/gcc/pic32mx/8.3.1/../../../../pic32mx/lib/fpu64\libc-musl.a(__out.o)
 .xc_stack_usage.hdr
                0x0000000000000000        0xe c:/program files/microchip/xc32/v4.30/bin/bin/../../lib/gcc/pic32mx/8.3.1/../../../../pic32mx/lib/fpu64\libc-musl.a(__out.o)
 .note.GNU-stack
                0x0000000000000000        0x0 c:/program files/microchip/xc32/v4.30/bin/bin/../../lib/gcc/pic32mx/8.3.1/../../../../pic32mx/lib/fpu64\libc-musl.a(__out.o)
 .text          0x0000000000000000        0x0 c:/program files/microchip/xc32/v4.30/bin/bin/../../lib/gcc/pic32mx/8.3.1/../../../../pic32mx/lib/fpu64\libc-musl.a(__pop_float.o)
 .data          0x0000000000000000        0x0 c:/program files/microchip/xc32/v4.30/bin/bin/../../lib/gcc/pic32mx/8.3.1/../../../../pic32mx/lib/fpu64\libc-musl.a(__pop_float.o)
 .bss           0x0000000000000000        0x0 c:/program files/microchip/xc32/v4.30/bin/bin/../../lib/gcc/pic32mx/8.3.1/../../../../pic32mx/lib/fpu64\libc-musl.a(__pop_float.o)
 .reginfo       0x0000000000000000       0x18 c:/program files/microchip/xc32/v4.30/bin/bin/../../lib/gcc/pic32mx/8.3.1/../../../../pic32mx/lib/fpu64\libc-musl.a(__pop_float.o)
 .MIPS.abiflags
                0x0000000000000000       0x18 c:/program files/microchip/xc32/v4.30/bin/bin/../../lib/gcc/pic32mx/8.3.1/../../../../pic32mx/lib/fpu64\libc-musl.a(__pop_float.o)
 .xc_stack_usage
                0x0000000000000000       0x19 c:/program files/microchip/xc32/v4.30/bin/bin/../../lib/gcc/pic32mx/8.3.1/../../../../pic32mx/lib/fpu64\libc-musl.a(__pop_float.o)
 .xc_stack_usage.hdr
                0x0000000000000000        0xe c:/program files/microchip/xc32/v4.30/bin/bin/../../lib/gcc/pic32mx/8.3.1/../../../../pic32mx/lib/fpu64\libc-musl.a(__pop_float.o)
 .note.GNU-stack
                0x0000000000000000        0x0 c:/program files/microchip/xc32/v4.30/bin/bin/../../lib/gcc/pic32mx/8.3.1/../../../../pic32mx/lib/fpu64\libc-musl.a(__pop_float.o)
 .text          0x0000000000000000        0x0 c:/program files/microchip/xc32/v4.30/bin/bin/../../lib/gcc/pic32mx/8.3.1/../../../../pic32mx/lib/fpu64\libc-musl.a(__pop_int.o)
 .data          0x0000000000000000        0x0 c:/program files/microchip/xc32/v4.30/bin/bin/../../lib/gcc/pic32mx/8.3.1/../../../../pic32mx/lib/fpu64\libc-musl.a(__pop_int.o)
 .bss           0x0000000000000000        0x0 c:/program files/microchip/xc32/v4.30/bin/bin/../../lib/gcc/pic32mx/8.3.1/../../../../pic32mx/lib/fpu64\libc-musl.a(__pop_int.o)
 .reginfo       0x0000000000000000       0x18 c:/program files/microchip/xc32/v4.30/bin/bin/../../lib/gcc/pic32mx/8.3.1/../../../../pic32mx/lib/fpu64\libc-musl.a(__pop_int.o)
 .MIPS.abiflags
                0x0000000000000000       0x18 c:/program files/microchip/xc32/v4.30/bin/bin/../../lib/gcc/pic32mx/8.3.1/../../../../pic32mx/lib/fpu64\libc-musl.a(__pop_int.o)
 .xc_stack_usage
                0x0000000000000000       0x17 c:/program files/microchip/xc32/v4.30/bin/bin/../../lib/gcc/pic32mx/8.3.1/../../../../pic32mx/lib/fpu64\libc-musl.a(__pop_int.o)
 .xc_stack_usage.hdr
                0x0000000000000000        0xe c:/program files/microchip/xc32/v4.30/bin/bin/../../lib/gcc/pic32mx/8.3.1/../../../../pic32mx/lib/fpu64\libc-musl.a(__pop_int.o)
 .note.GNU-stack
                0x0000000000000000        0x0 c:/program files/microchip/xc32/v4.30/bin/bin/../../lib/gcc/pic32mx/8.3.1/../../../../pic32mx/lib/fpu64\libc-musl.a(__pop_int.o)
 .text          0x0000000000000000        0x0 c:/program files/microchip/xc32/v4.30/bin/bin/../../lib/gcc/pic32mx/8.3.1/../../../../pic32mx/lib/fpu64\libc-musl.a(__pop_ptr.o)
 .data          0x0000000000000000        0x0 c:/program files/microchip/xc32/v4.30/bin/bin/../../lib/gcc/pic32mx/8.3.1/../../../../pic32mx/lib/fpu64\libc-musl.a(__pop_ptr.o)
 .bss           0x0000000000000000        0x0 c:/program files/microchip/xc32/v4.30/bin/bin/../../lib/gcc/pic32mx/8.3.1/../../../../pic32mx/lib/fpu64\libc-musl.a(__pop_ptr.o)
 .reginfo       0x0000000000000000       0x18 c:/program files/microchip/xc32/v4.30/bin/bin/../../lib/gcc/pic32mx/8.3.1/../../../../pic32mx/lib/fpu64\libc-musl.a(__pop_ptr.o)
 .MIPS.abiflags
                0x0000000000000000       0x18 c:/program files/microchip/xc32/v4.30/bin/bin/../../lib/gcc/pic32mx/8.3.1/../../../../pic32mx/lib/fpu64\libc-musl.a(__pop_ptr.o)
 .xc_stack_usage
                0x0000000000000000       0x17 c:/program files/microchip/xc32/v4.30/bin/bin/../../lib/gcc/pic32mx/8.3.1/../../../../pic32mx/lib/fpu64\libc-musl.a(__pop_ptr.o)
 .xc_stack_usage.hdr
                0x0000000000000000        0xe c:/program files/microchip/xc32/v4.30/bin/bin/../../lib/gcc/pic32mx/8.3.1/../../../../pic32mx/lib/fpu64\libc-musl.a(__pop_ptr.o)
 .note.GNU-stack
                0x0000000000000000        0x0 c:/program files/microchip/xc32/v4.30/bin/bin/../../lib/gcc/pic32mx/8.3.1/../../../../pic32mx/lib/fpu64\libc-musl.a(__pop_ptr.o)
 .text          0x0000000000000000        0x0 c:/program files/microchip/xc32/v4.30/bin/bin/../../lib/gcc/pic32mx/8.3.1/../../../../pic32mx/lib/fpu64\libc-musl.a(__printf_core.o)
 .data          0x0000000000000000        0x0 c:/program files/microchip/xc32/v4.30/bin/bin/../../lib/gcc/pic32mx/8.3.1/../../../../pic32mx/lib/fpu64\libc-musl.a(__printf_core.o)
 .bss           0x0000000000000000        0x0 c:/program files/microchip/xc32/v4.30/bin/bin/../../lib/gcc/pic32mx/8.3.1/../../../../pic32mx/lib/fpu64\libc-musl.a(__printf_core.o)
 .reginfo       0x0000000000000000       0x18 c:/program files/microchip/xc32/v4.30/bin/bin/../../lib/gcc/pic32mx/8.3.1/../../../../pic32mx/lib/fpu64\libc-musl.a(__printf_core.o)
 .MIPS.abiflags
                0x0000000000000000       0x18 c:/program files/microchip/xc32/v4.30/bin/bin/../../lib/gcc/pic32mx/8.3.1/../../../../pic32mx/lib/fpu64\libc-musl.a(__printf_core.o)
 .xc_stack_usage
                0x0000000000000000       0xaf c:/program files/microchip/xc32/v4.30/bin/bin/../../lib/gcc/pic32mx/8.3.1/../../../../pic32mx/lib/fpu64\libc-musl.a(__printf_core.o)
 .text.__string_out
                0x0000000000000000       0x5c c:/program files/microchip/xc32/v4.30/bin/bin/../../lib/gcc/pic32mx/8.3.1/../../../../pic32mx/lib/fpu64\libc-musl.a(__printf_core.o)
 .text.__dummy_fmt3
                0x0000000000000000        0x8 c:/program files/microchip/xc32/v4.30/bin/bin/../../lib/gcc/pic32mx/8.3.1/../../../../pic32mx/lib/fpu64\libc-musl.a(__printf_core.o)
 .text.__dummy_fmt4
                0x0000000000000000        0x8 c:/program files/microchip/xc32/v4.30/bin/bin/../../lib/gcc/pic32mx/8.3.1/../../../../pic32mx/lib/fpu64\libc-musl.a(__printf_core.o)
 .text.__dummy_fmts
                0x0000000000000000        0x8 c:/program files/microchip/xc32/v4.30/bin/bin/../../lib/gcc/pic32mx/8.3.1/../../../../pic32mx/lib/fpu64\libc-musl.a(__printf_core.o)
 .xc_stack_usage.hdr
                0x0000000000000000        0xe c:/program files/microchip/xc32/v4.30/bin/bin/../../lib/gcc/pic32mx/8.3.1/../../../../pic32mx/lib/fpu64\libc-musl.a(__printf_core.o)
 .note.GNU-stack
                0x0000000000000000        0x0 c:/program files/microchip/xc32/v4.30/bin/bin/../../lib/gcc/pic32mx/8.3.1/../../../../pic32mx/lib/fpu64\libc-musl.a(__printf_core.o)
 .text          0x0000000000000000        0x0 c:/program files/microchip/xc32/v4.30/bin/bin/../../lib/gcc/pic32mx/8.3.1/../../../../pic32mx/lib/fpu64\libc-musl.a(__stdio_close.o)
 .data          0x0000000000000000        0x0 c:/program files/microchip/xc32/v4.30/bin/bin/../../lib/gcc/pic32mx/8.3.1/../../../../pic32mx/lib/fpu64\libc-musl.a(__stdio_close.o)
 .bss           0x0000000000000000        0x0 c:/program files/microchip/xc32/v4.30/bin/bin/../../lib/gcc/pic32mx/8.3.1/../../../../pic32mx/lib/fpu64\libc-musl.a(__stdio_close.o)
 .reginfo       0x0000000000000000       0x18 c:/program files/microchip/xc32/v4.30/bin/bin/../../lib/gcc/pic32mx/8.3.1/../../../../pic32mx/lib/fpu64\libc-musl.a(__stdio_close.o)
 .MIPS.abiflags
                0x0000000000000000       0x18 c:/program files/microchip/xc32/v4.30/bin/bin/../../lib/gcc/pic32mx/8.3.1/../../../../pic32mx/lib/fpu64\libc-musl.a(__stdio_close.o)
 .xc_stack_usage
                0x0000000000000000       0x39 c:/program files/microchip/xc32/v4.30/bin/bin/../../lib/gcc/pic32mx/8.3.1/../../../../pic32mx/lib/fpu64\libc-musl.a(__stdio_close.o)
 .text.__stdio_close
                0x0000000000000000       0xa0 c:/program files/microchip/xc32/v4.30/bin/bin/../../lib/gcc/pic32mx/8.3.1/../../../../pic32mx/lib/fpu64\libc-musl.a(__stdio_close.o)
 .xc_stack_usage.hdr
                0x0000000000000000        0xe c:/program files/microchip/xc32/v4.30/bin/bin/../../lib/gcc/pic32mx/8.3.1/../../../../pic32mx/lib/fpu64\libc-musl.a(__stdio_close.o)
 .note.GNU-stack
                0x0000000000000000        0x0 c:/program files/microchip/xc32/v4.30/bin/bin/../../lib/gcc/pic32mx/8.3.1/../../../../pic32mx/lib/fpu64\libc-musl.a(__stdio_close.o)
 .text          0x0000000000000000        0x0 c:/program files/microchip/xc32/v4.30/bin/bin/../../lib/gcc/pic32mx/8.3.1/../../../../pic32mx/lib/fpu64\libc-musl.a(atoi.o)
 .data          0x0000000000000000        0x0 c:/program files/microchip/xc32/v4.30/bin/bin/../../lib/gcc/pic32mx/8.3.1/../../../../pic32mx/lib/fpu64\libc-musl.a(atoi.o)
 .bss           0x0000000000000000        0x0 c:/program files/microchip/xc32/v4.30/bin/bin/../../lib/gcc/pic32mx/8.3.1/../../../../pic32mx/lib/fpu64\libc-musl.a(atoi.o)
 .reginfo       0x0000000000000000       0x18 c:/program files/microchip/xc32/v4.30/bin/bin/../../lib/gcc/pic32mx/8.3.1/../../../../pic32mx/lib/fpu64\libc-musl.a(atoi.o)
 .MIPS.abiflags
                0x0000000000000000       0x18 c:/program files/microchip/xc32/v4.30/bin/bin/../../lib/gcc/pic32mx/8.3.1/../../../../pic32mx/lib/fpu64\libc-musl.a(atoi.o)
 .xc_stack_usage
                0x0000000000000000       0x12 c:/program files/microchip/xc32/v4.30/bin/bin/../../lib/gcc/pic32mx/8.3.1/../../../../pic32mx/lib/fpu64\libc-musl.a(atoi.o)
 .xc_stack_usage.hdr
                0x0000000000000000        0xe c:/program files/microchip/xc32/v4.30/bin/bin/../../lib/gcc/pic32mx/8.3.1/../../../../pic32mx/lib/fpu64\libc-musl.a(atoi.o)
 .note.GNU-stack
                0x0000000000000000        0x0 c:/program files/microchip/xc32/v4.30/bin/bin/../../lib/gcc/pic32mx/8.3.1/../../../../pic32mx/lib/fpu64\libc-musl.a(atoi.o)
 .text          0x0000000000000000        0x0 c:/program files/microchip/xc32/v4.30/bin/bin/../../lib/gcc/pic32mx/8.3.1/../../../../pic32mx/lib/fpu64\libc-musl.a(strchrnul.o)
 .data          0x0000000000000000        0x0 c:/program files/microchip/xc32/v4.30/bin/bin/../../lib/gcc/pic32mx/8.3.1/../../../../pic32mx/lib/fpu64\libc-musl.a(strchrnul.o)
 .bss           0x0000000000000000        0x0 c:/program files/microchip/xc32/v4.30/bin/bin/../../lib/gcc/pic32mx/8.3.1/../../../../pic32mx/lib/fpu64\libc-musl.a(strchrnul.o)
 .reginfo       0x0000000000000000       0x18 c:/program files/microchip/xc32/v4.30/bin/bin/../../lib/gcc/pic32mx/8.3.1/../../../../pic32mx/lib/fpu64\libc-musl.a(strchrnul.o)
 .MIPS.abiflags
                0x0000000000000000       0x18 c:/program files/microchip/xc32/v4.30/bin/bin/../../lib/gcc/pic32mx/8.3.1/../../../../pic32mx/lib/fpu64\libc-musl.a(strchrnul.o)
 .xc_stack_usage
                0x0000000000000000       0x19 c:/program files/microchip/xc32/v4.30/bin/bin/../../lib/gcc/pic32mx/8.3.1/../../../../pic32mx/lib/fpu64\libc-musl.a(strchrnul.o)
 .xc_stack_usage.hdr
                0x0000000000000000        0xe c:/program files/microchip/xc32/v4.30/bin/bin/../../lib/gcc/pic32mx/8.3.1/../../../../pic32mx/lib/fpu64\libc-musl.a(strchrnul.o)
 .note.GNU-stack
                0x0000000000000000        0x0 c:/program files/microchip/xc32/v4.30/bin/bin/../../lib/gcc/pic32mx/8.3.1/../../../../pic32mx/lib/fpu64\libc-musl.a(strchrnul.o)
 .text          0x0000000000000000        0x0 c:/program files/microchip/xc32/v4.30/bin/bin/../../lib/gcc/pic32mx/8.3.1/../../../../pic32mx/lib/fpu64\libc-musl.a(tolower.o)
 .data          0x0000000000000000        0x0 c:/program files/microchip/xc32/v4.30/bin/bin/../../lib/gcc/pic32mx/8.3.1/../../../../pic32mx/lib/fpu64\libc-musl.a(tolower.o)
 .bss           0x0000000000000000        0x0 c:/program files/microchip/xc32/v4.30/bin/bin/../../lib/gcc/pic32mx/8.3.1/../../../../pic32mx/lib/fpu64\libc-musl.a(tolower.o)
 .reginfo       0x0000000000000000       0x18 c:/program files/microchip/xc32/v4.30/bin/bin/../../lib/gcc/pic32mx/8.3.1/../../../../pic32mx/lib/fpu64\libc-musl.a(tolower.o)
 .MIPS.abiflags
                0x0000000000000000       0x18 c:/program files/microchip/xc32/v4.30/bin/bin/../../lib/gcc/pic32mx/8.3.1/../../../../pic32mx/lib/fpu64\libc-musl.a(tolower.o)
 .xc_stack_usage
                0x0000000000000000       0x2e c:/program files/microchip/xc32/v4.30/bin/bin/../../lib/gcc/pic32mx/8.3.1/../../../../pic32mx/lib/fpu64\libc-musl.a(tolower.o)
 .text.__tolower_l
                0x0000000000000000       0x1c c:/program files/microchip/xc32/v4.30/bin/bin/../../lib/gcc/pic32mx/8.3.1/../../../../pic32mx/lib/fpu64\libc-musl.a(tolower.o)
 .xc_stack_usage.hdr
                0x0000000000000000        0xe c:/program files/microchip/xc32/v4.30/bin/bin/../../lib/gcc/pic32mx/8.3.1/../../../../pic32mx/lib/fpu64\libc-musl.a(tolower.o)
 .note.GNU-stack
                0x0000000000000000        0x0 c:/program files/microchip/xc32/v4.30/bin/bin/../../lib/gcc/pic32mx/8.3.1/../../../../pic32mx/lib/fpu64\libc-musl.a(tolower.o)
 .text          0x0000000000000000        0x0 c:/program files/microchip/xc32/v4.30/bin/bin/../../lib/gcc/pic32mx/8.3.1/../../../../pic32mx/lib/fpu64\libc-musl.a(__fmt_a.o)
 .data          0x0000000000000000        0x0 c:/program files/microchip/xc32/v4.30/bin/bin/../../lib/gcc/pic32mx/8.3.1/../../../../pic32mx/lib/fpu64\libc-musl.a(__fmt_a.o)
 .bss           0x0000000000000000        0x0 c:/program files/microchip/xc32/v4.30/bin/bin/../../lib/gcc/pic32mx/8.3.1/../../../../pic32mx/lib/fpu64\libc-musl.a(__fmt_a.o)
 .reginfo       0x0000000000000000       0x18 c:/program files/microchip/xc32/v4.30/bin/bin/../../lib/gcc/pic32mx/8.3.1/../../../../pic32mx/lib/fpu64\libc-musl.a(__fmt_a.o)
 .MIPS.abiflags
                0x0000000000000000       0x18 c:/program files/microchip/xc32/v4.30/bin/bin/../../lib/gcc/pic32mx/8.3.1/../../../../pic32mx/lib/fpu64\libc-musl.a(__fmt_a.o)
 .xc_stack_usage
                0x0000000000000000       0x15 c:/program files/microchip/xc32/v4.30/bin/bin/../../lib/gcc/pic32mx/8.3.1/../../../../pic32mx/lib/fpu64\libc-musl.a(__fmt_a.o)
 .xc_stack_usage.hdr
                0x0000000000000000        0xe c:/program files/microchip/xc32/v4.30/bin/bin/../../lib/gcc/pic32mx/8.3.1/../../../../pic32mx/lib/fpu64\libc-musl.a(__fmt_a.o)
 .note.GNU-stack
                0x0000000000000000        0x0 c:/program files/microchip/xc32/v4.30/bin/bin/../../lib/gcc/pic32mx/8.3.1/../../../../pic32mx/lib/fpu64\libc-musl.a(__fmt_a.o)
 .text          0x0000000000000000        0x0 c:/program files/microchip/xc32/v4.30/bin/bin/../../lib/gcc/pic32mx/8.3.1/../../../../pic32mx/lib/fpu64\libc-musl.a(__fmt_d.o)
 .data          0x0000000000000000        0x0 c:/program files/microchip/xc32/v4.30/bin/bin/../../lib/gcc/pic32mx/8.3.1/../../../../pic32mx/lib/fpu64\libc-musl.a(__fmt_d.o)
 .bss           0x0000000000000000        0x0 c:/program files/microchip/xc32/v4.30/bin/bin/../../lib/gcc/pic32mx/8.3.1/../../../../pic32mx/lib/fpu64\libc-musl.a(__fmt_d.o)
 .reginfo       0x0000000000000000       0x18 c:/program files/microchip/xc32/v4.30/bin/bin/../../lib/gcc/pic32mx/8.3.1/../../../../pic32mx/lib/fpu64\libc-musl.a(__fmt_d.o)
 .MIPS.abiflags
                0x0000000000000000       0x18 c:/program files/microchip/xc32/v4.30/bin/bin/../../lib/gcc/pic32mx/8.3.1/../../../../pic32mx/lib/fpu64\libc-musl.a(__fmt_d.o)
 .xc_stack_usage
                0x0000000000000000       0x15 c:/program files/microchip/xc32/v4.30/bin/bin/../../lib/gcc/pic32mx/8.3.1/../../../../pic32mx/lib/fpu64\libc-musl.a(__fmt_d.o)
 .xc_stack_usage.hdr
                0x0000000000000000        0xe c:/program files/microchip/xc32/v4.30/bin/bin/../../lib/gcc/pic32mx/8.3.1/../../../../pic32mx/lib/fpu64\libc-musl.a(__fmt_d.o)
 .note.GNU-stack
                0x0000000000000000        0x0 c:/program files/microchip/xc32/v4.30/bin/bin/../../lib/gcc/pic32mx/8.3.1/../../../../pic32mx/lib/fpu64\libc-musl.a(__fmt_d.o)
 .text          0x0000000000000000        0x0 c:/program files/microchip/xc32/v4.30/bin/bin/../../lib/gcc/pic32mx/8.3.1/../../../../pic32mx/lib/fpu64\libc-musl.a(__fmt_fp.o)
 .data          0x0000000000000000        0x0 c:/program files/microchip/xc32/v4.30/bin/bin/../../lib/gcc/pic32mx/8.3.1/../../../../pic32mx/lib/fpu64\libc-musl.a(__fmt_fp.o)
 .bss           0x0000000000000000        0x0 c:/program files/microchip/xc32/v4.30/bin/bin/../../lib/gcc/pic32mx/8.3.1/../../../../pic32mx/lib/fpu64\libc-musl.a(__fmt_fp.o)
 .reginfo       0x0000000000000000       0x18 c:/program files/microchip/xc32/v4.30/bin/bin/../../lib/gcc/pic32mx/8.3.1/../../../../pic32mx/lib/fpu64\libc-musl.a(__fmt_fp.o)
 .MIPS.abiflags
                0x0000000000000000       0x18 c:/program files/microchip/xc32/v4.30/bin/bin/../../lib/gcc/pic32mx/8.3.1/../../../../pic32mx/lib/fpu64\libc-musl.a(__fmt_fp.o)
 .xc_stack_usage
                0x0000000000000000       0x16 c:/program files/microchip/xc32/v4.30/bin/bin/../../lib/gcc/pic32mx/8.3.1/../../../../pic32mx/lib/fpu64\libc-musl.a(__fmt_fp.o)
 .xc_stack_usage.hdr
                0x0000000000000000        0xe c:/program files/microchip/xc32/v4.30/bin/bin/../../lib/gcc/pic32mx/8.3.1/../../../../pic32mx/lib/fpu64\libc-musl.a(__fmt_fp.o)
 .note.GNU-stack
                0x0000000000000000        0x0 c:/program files/microchip/xc32/v4.30/bin/bin/../../lib/gcc/pic32mx/8.3.1/../../../../pic32mx/lib/fpu64\libc-musl.a(__fmt_fp.o)
 .text          0x0000000000000000        0x0 c:/program files/microchip/xc32/v4.30/bin/bin/../../lib/gcc/pic32mx/8.3.1/../../../../pic32mx/lib/fpu64\libc-musl.a(__fmt_o.o)
 .data          0x0000000000000000        0x0 c:/program files/microchip/xc32/v4.30/bin/bin/../../lib/gcc/pic32mx/8.3.1/../../../../pic32mx/lib/fpu64\libc-musl.a(__fmt_o.o)
 .bss           0x0000000000000000        0x0 c:/program files/microchip/xc32/v4.30/bin/bin/../../lib/gcc/pic32mx/8.3.1/../../../../pic32mx/lib/fpu64\libc-musl.a(__fmt_o.o)
 .reginfo       0x0000000000000000       0x18 c:/program files/microchip/xc32/v4.30/bin/bin/../../lib/gcc/pic32mx/8.3.1/../../../../pic32mx/lib/fpu64\libc-musl.a(__fmt_o.o)
 .MIPS.abiflags
                0x0000000000000000       0x18 c:/program files/microchip/xc32/v4.30/bin/bin/../../lib/gcc/pic32mx/8.3.1/../../../../pic32mx/lib/fpu64\libc-musl.a(__fmt_o.o)
 .xc_stack_usage
                0x0000000000000000       0x15 c:/program files/microchip/xc32/v4.30/bin/bin/../../lib/gcc/pic32mx/8.3.1/../../../../pic32mx/lib/fpu64\libc-musl.a(__fmt_o.o)
 .xc_stack_usage.hdr
                0x0000000000000000        0xe c:/program files/microchip/xc32/v4.30/bin/bin/../../lib/gcc/pic32mx/8.3.1/../../../../pic32mx/lib/fpu64\libc-musl.a(__fmt_o.o)
 .note.GNU-stack
                0x0000000000000000        0x0 c:/program files/microchip/xc32/v4.30/bin/bin/../../lib/gcc/pic32mx/8.3.1/../../../../pic32mx/lib/fpu64\libc-musl.a(__fmt_o.o)
 .text          0x0000000000000000        0x0 c:/program files/microchip/xc32/v4.30/bin/bin/../../lib/gcc/pic32mx/8.3.1/../../../../pic32mx/lib/fpu64\libc-musl.a(__fmt_s.o)
 .data          0x0000000000000000        0x0 c:/program files/microchip/xc32/v4.30/bin/bin/../../lib/gcc/pic32mx/8.3.1/../../../../pic32mx/lib/fpu64\libc-musl.a(__fmt_s.o)
 .bss           0x0000000000000000        0x0 c:/program files/microchip/xc32/v4.30/bin/bin/../../lib/gcc/pic32mx/8.3.1/../../../../pic32mx/lib/fpu64\libc-musl.a(__fmt_s.o)
 .reginfo       0x0000000000000000       0x18 c:/program files/microchip/xc32/v4.30/bin/bin/../../lib/gcc/pic32mx/8.3.1/../../../../pic32mx/lib/fpu64\libc-musl.a(__fmt_s.o)
 .MIPS.abiflags
                0x0000000000000000       0x18 c:/program files/microchip/xc32/v4.30/bin/bin/../../lib/gcc/pic32mx/8.3.1/../../../../pic32mx/lib/fpu64\libc-musl.a(__fmt_s.o)
 .xc_stack_usage
                0x0000000000000000       0x15 c:/program files/microchip/xc32/v4.30/bin/bin/../../lib/gcc/pic32mx/8.3.1/../../../../pic32mx/lib/fpu64\libc-musl.a(__fmt_s.o)
 .xc_stack_usage.hdr
                0x0000000000000000        0xe c:/program files/microchip/xc32/v4.30/bin/bin/../../lib/gcc/pic32mx/8.3.1/../../../../pic32mx/lib/fpu64\libc-musl.a(__fmt_s.o)
 .note.GNU-stack
                0x0000000000000000        0x0 c:/program files/microchip/xc32/v4.30/bin/bin/../../lib/gcc/pic32mx/8.3.1/../../../../pic32mx/lib/fpu64\libc-musl.a(__fmt_s.o)
 .text          0x0000000000000000        0x0 c:/program files/microchip/xc32/v4.30/bin/bin/../../lib/gcc/pic32mx/8.3.1/../../../../pic32mx/lib/fpu64\libc-musl.a(__fmt_u.o)
 .data          0x0000000000000000        0x0 c:/program files/microchip/xc32/v4.30/bin/bin/../../lib/gcc/pic32mx/8.3.1/../../../../pic32mx/lib/fpu64\libc-musl.a(__fmt_u.o)
 .bss           0x0000000000000000        0x0 c:/program files/microchip/xc32/v4.30/bin/bin/../../lib/gcc/pic32mx/8.3.1/../../../../pic32mx/lib/fpu64\libc-musl.a(__fmt_u.o)
 .reginfo       0x0000000000000000       0x18 c:/program files/microchip/xc32/v4.30/bin/bin/../../lib/gcc/pic32mx/8.3.1/../../../../pic32mx/lib/fpu64\libc-musl.a(__fmt_u.o)
 .MIPS.abiflags
                0x0000000000000000       0x18 c:/program files/microchip/xc32/v4.30/bin/bin/../../lib/gcc/pic32mx/8.3.1/../../../../pic32mx/lib/fpu64\libc-musl.a(__fmt_u.o)
 .xc_stack_usage
                0x0000000000000000       0x15 c:/program files/microchip/xc32/v4.30/bin/bin/../../lib/gcc/pic32mx/8.3.1/../../../../pic32mx/lib/fpu64\libc-musl.a(__fmt_u.o)
 .xc_stack_usage.hdr
                0x0000000000000000        0xe c:/program files/microchip/xc32/v4.30/bin/bin/../../lib/gcc/pic32mx/8.3.1/../../../../pic32mx/lib/fpu64\libc-musl.a(__fmt_u.o)
 .note.GNU-stack
                0x0000000000000000        0x0 c:/program files/microchip/xc32/v4.30/bin/bin/../../lib/gcc/pic32mx/8.3.1/../../../../pic32mx/lib/fpu64\libc-musl.a(__fmt_u.o)
 .text          0x0000000000000000        0x0 c:/program files/microchip/xc32/v4.30/bin/bin/../../lib/gcc/pic32mx/8.3.1/../../../../pic32mx/lib/fpu64\libc-musl.a(__fmt_x.o)
 .data          0x0000000000000000        0x0 c:/program files/microchip/xc32/v4.30/bin/bin/../../lib/gcc/pic32mx/8.3.1/../../../../pic32mx/lib/fpu64\libc-musl.a(__fmt_x.o)
 .bss           0x0000000000000000        0x0 c:/program files/microchip/xc32/v4.30/bin/bin/../../lib/gcc/pic32mx/8.3.1/../../../../pic32mx/lib/fpu64\libc-musl.a(__fmt_x.o)
 .reginfo       0x0000000000000000       0x18 c:/program files/microchip/xc32/v4.30/bin/bin/../../lib/gcc/pic32mx/8.3.1/../../../../pic32mx/lib/fpu64\libc-musl.a(__fmt_x.o)
 .MIPS.abiflags
                0x0000000000000000       0x18 c:/program files/microchip/xc32/v4.30/bin/bin/../../lib/gcc/pic32mx/8.3.1/../../../../pic32mx/lib/fpu64\libc-musl.a(__fmt_x.o)
 .xc_stack_usage
                0x0000000000000000       0x15 c:/program files/microchip/xc32/v4.30/bin/bin/../../lib/gcc/pic32mx/8.3.1/../../../../pic32mx/lib/fpu64\libc-musl.a(__fmt_x.o)
 .xc_stack_usage.hdr
                0x0000000000000000        0xe c:/program files/microchip/xc32/v4.30/bin/bin/../../lib/gcc/pic32mx/8.3.1/../../../../pic32mx/lib/fpu64\libc-musl.a(__fmt_x.o)
 .note.GNU-stack
                0x0000000000000000        0x0 c:/program files/microchip/xc32/v4.30/bin/bin/../../lib/gcc/pic32mx/8.3.1/../../../../pic32mx/lib/fpu64\libc-musl.a(__fmt_x.o)
 .text          0x0000000000000000        0x0 c:/program files/microchip/xc32/v4.30/bin/bin/../../lib/gcc/pic32mx/8.3.1/../../../../pic32mx/lib/fpu64\libc-musl.a(__init_stdio.o)
 .data          0x0000000000000000        0x0 c:/program files/microchip/xc32/v4.30/bin/bin/../../lib/gcc/pic32mx/8.3.1/../../../../pic32mx/lib/fpu64\libc-musl.a(__init_stdio.o)
 .bss           0x0000000000000000        0x0 c:/program files/microchip/xc32/v4.30/bin/bin/../../lib/gcc/pic32mx/8.3.1/../../../../pic32mx/lib/fpu64\libc-musl.a(__init_stdio.o)
 .reginfo       0x0000000000000000       0x18 c:/program files/microchip/xc32/v4.30/bin/bin/../../lib/gcc/pic32mx/8.3.1/../../../../pic32mx/lib/fpu64\libc-musl.a(__init_stdio.o)
 .MIPS.abiflags
                0x0000000000000000       0x18 c:/program files/microchip/xc32/v4.30/bin/bin/../../lib/gcc/pic32mx/8.3.1/../../../../pic32mx/lib/fpu64\libc-musl.a(__init_stdio.o)
 .xc_stack_usage
                0x0000000000000000       0x2f c:/program files/microchip/xc32/v4.30/bin/bin/../../lib/gcc/pic32mx/8.3.1/../../../../pic32mx/lib/fpu64\libc-musl.a(__init_stdio.o)
 .text.__dummy  0x0000000000000000        0x8 c:/program files/microchip/xc32/v4.30/bin/bin/../../lib/gcc/pic32mx/8.3.1/../../../../pic32mx/lib/fpu64\libc-musl.a(__init_stdio.o)
 .text.__init_stdio
                0x0000000000000000       0x2c c:/program files/microchip/xc32/v4.30/bin/bin/../../lib/gcc/pic32mx/8.3.1/../../../../pic32mx/lib/fpu64\libc-musl.a(__init_stdio.o)
 .xc_stack_usage.hdr
                0x0000000000000000        0xe c:/program files/microchip/xc32/v4.30/bin/bin/../../lib/gcc/pic32mx/8.3.1/../../../../pic32mx/lib/fpu64\libc-musl.a(__init_stdio.o)
 .note.GNU-stack
                0x0000000000000000        0x0 c:/program files/microchip/xc32/v4.30/bin/bin/../../lib/gcc/pic32mx/8.3.1/../../../../pic32mx/lib/fpu64\libc-musl.a(__init_stdio.o)
 .text          0x0000000000000000        0x0 c:/program files/microchip/xc32/v4.30/bin/bin/../../lib/gcc/pic32mx/8.3.1/../../../../pic32mx/lib/fpu64\libc-musl.a(__io_file_needed.o)
 .data          0x0000000000000000        0x0 c:/program files/microchip/xc32/v4.30/bin/bin/../../lib/gcc/pic32mx/8.3.1/../../../../pic32mx/lib/fpu64\libc-musl.a(__io_file_needed.o)
 .bss           0x0000000000000000        0x0 c:/program files/microchip/xc32/v4.30/bin/bin/../../lib/gcc/pic32mx/8.3.1/../../../../pic32mx/lib/fpu64\libc-musl.a(__io_file_needed.o)
 .reginfo       0x0000000000000000       0x18 c:/program files/microchip/xc32/v4.30/bin/bin/../../lib/gcc/pic32mx/8.3.1/../../../../pic32mx/lib/fpu64\libc-musl.a(__io_file_needed.o)
 .MIPS.abiflags
                0x0000000000000000       0x18 c:/program files/microchip/xc32/v4.30/bin/bin/../../lib/gcc/pic32mx/8.3.1/../../../../pic32mx/lib/fpu64\libc-musl.a(__io_file_needed.o)
 .xc_stack_usage
                0x0000000000000000       0x1e c:/program files/microchip/xc32/v4.30/bin/bin/../../lib/gcc/pic32mx/8.3.1/../../../../pic32mx/lib/fpu64\libc-musl.a(__io_file_needed.o)
 .xc_stack_usage.hdr
                0x0000000000000000        0xe c:/program files/microchip/xc32/v4.30/bin/bin/../../lib/gcc/pic32mx/8.3.1/../../../../pic32mx/lib/fpu64\libc-musl.a(__io_file_needed.o)
 .note.GNU-stack
                0x0000000000000000        0x0 c:/program files/microchip/xc32/v4.30/bin/bin/../../lib/gcc/pic32mx/8.3.1/../../../../pic32mx/lib/fpu64\libc-musl.a(__io_file_needed.o)
 .text          0x0000000000000000        0x0 c:/program files/microchip/xc32/v4.30/bin/bin/../../lib/gcc/pic32mx/8.3.1/../../../../pic32mx/lib/fpu64\libc-musl.a(toupper.o)
 .data          0x0000000000000000        0x0 c:/program files/microchip/xc32/v4.30/bin/bin/../../lib/gcc/pic32mx/8.3.1/../../../../pic32mx/lib/fpu64\libc-musl.a(toupper.o)
 .bss           0x0000000000000000        0x0 c:/program files/microchip/xc32/v4.30/bin/bin/../../lib/gcc/pic32mx/8.3.1/../../../../pic32mx/lib/fpu64\libc-musl.a(toupper.o)
 .reginfo       0x0000000000000000       0x18 c:/program files/microchip/xc32/v4.30/bin/bin/../../lib/gcc/pic32mx/8.3.1/../../../../pic32mx/lib/fpu64\libc-musl.a(toupper.o)
 .MIPS.abiflags
                0x0000000000000000       0x18 c:/program files/microchip/xc32/v4.30/bin/bin/../../lib/gcc/pic32mx/8.3.1/../../../../pic32mx/lib/fpu64\libc-musl.a(toupper.o)
 .xc_stack_usage
                0x0000000000000000       0x2e c:/program files/microchip/xc32/v4.30/bin/bin/../../lib/gcc/pic32mx/8.3.1/../../../../pic32mx/lib/fpu64\libc-musl.a(toupper.o)
 .text.__toupper_l
                0x0000000000000000       0x1c c:/program files/microchip/xc32/v4.30/bin/bin/../../lib/gcc/pic32mx/8.3.1/../../../../pic32mx/lib/fpu64\libc-musl.a(toupper.o)
 .xc_stack_usage.hdr
                0x0000000000000000        0xe c:/program files/microchip/xc32/v4.30/bin/bin/../../lib/gcc/pic32mx/8.3.1/../../../../pic32mx/lib/fpu64\libc-musl.a(toupper.o)
 .note.GNU-stack
                0x0000000000000000        0x0 c:/program files/microchip/xc32/v4.30/bin/bin/../../lib/gcc/pic32mx/8.3.1/../../../../pic32mx/lib/fpu64\libc-musl.a(toupper.o)
 .text          0x0000000000000000        0x0 c:/program files/microchip/xc32/v4.30/bin/bin/../../lib/gcc/pic32mx/8.3.1/../../../../pic32mx/lib/fpu64\libc-musl.a(__cvt_u.o)
 .data          0x0000000000000000        0x0 c:/program files/microchip/xc32/v4.30/bin/bin/../../lib/gcc/pic32mx/8.3.1/../../../../pic32mx/lib/fpu64\libc-musl.a(__cvt_u.o)
 .bss           0x0000000000000000        0x0 c:/program files/microchip/xc32/v4.30/bin/bin/../../lib/gcc/pic32mx/8.3.1/../../../../pic32mx/lib/fpu64\libc-musl.a(__cvt_u.o)
 .reginfo       0x0000000000000000       0x18 c:/program files/microchip/xc32/v4.30/bin/bin/../../lib/gcc/pic32mx/8.3.1/../../../../pic32mx/lib/fpu64\libc-musl.a(__cvt_u.o)
 .MIPS.abiflags
                0x0000000000000000       0x18 c:/program files/microchip/xc32/v4.30/bin/bin/../../lib/gcc/pic32mx/8.3.1/../../../../pic32mx/lib/fpu64\libc-musl.a(__cvt_u.o)
 .xc_stack_usage
                0x0000000000000000       0x15 c:/program files/microchip/xc32/v4.30/bin/bin/../../lib/gcc/pic32mx/8.3.1/../../../../pic32mx/lib/fpu64\libc-musl.a(__cvt_u.o)
 .xc_stack_usage.hdr
                0x0000000000000000        0xe c:/program files/microchip/xc32/v4.30/bin/bin/../../lib/gcc/pic32mx/8.3.1/../../../../pic32mx/lib/fpu64\libc-musl.a(__cvt_u.o)
 .note.GNU-stack
                0x0000000000000000        0x0 c:/program files/microchip/xc32/v4.30/bin/bin/../../lib/gcc/pic32mx/8.3.1/../../../../pic32mx/lib/fpu64\libc-musl.a(__cvt_u.o)
 .text          0x0000000000000000        0x0 c:/program files/microchip/xc32/v4.30/bin/bin/../../lib/gcc/pic32mx/8.3.1/../../../../pic32mx/lib/fpu64\libm-musl.a(floor.o)
 .data          0x0000000000000000        0x0 c:/program files/microchip/xc32/v4.30/bin/bin/../../lib/gcc/pic32mx/8.3.1/../../../../pic32mx/lib/fpu64\libm-musl.a(floor.o)
 .bss           0x0000000000000000        0x0 c:/program files/microchip/xc32/v4.30/bin/bin/../../lib/gcc/pic32mx/8.3.1/../../../../pic32mx/lib/fpu64\libm-musl.a(floor.o)
 .reginfo       0x0000000000000000       0x18 c:/program files/microchip/xc32/v4.30/bin/bin/../../lib/gcc/pic32mx/8.3.1/../../../../pic32mx/lib/fpu64\libm-musl.a(floor.o)
 .MIPS.abiflags
                0x0000000000000000       0x18 c:/program files/microchip/xc32/v4.30/bin/bin/../../lib/gcc/pic32mx/8.3.1/../../../../pic32mx/lib/fpu64\libm-musl.a(floor.o)
 .xc_stack_usage
                0x0000000000000000       0x13 c:/program files/microchip/xc32/v4.30/bin/bin/../../lib/gcc/pic32mx/8.3.1/../../../../pic32mx/lib/fpu64\libm-musl.a(floor.o)
 .xc_stack_usage.hdr
                0x0000000000000000        0xe c:/program files/microchip/xc32/v4.30/bin/bin/../../lib/gcc/pic32mx/8.3.1/../../../../pic32mx/lib/fpu64\libm-musl.a(floor.o)
 .note.GNU-stack
                0x0000000000000000        0x0 c:/program files/microchip/xc32/v4.30/bin/bin/../../lib/gcc/pic32mx/8.3.1/../../../../pic32mx/lib/fpu64\libm-musl.a(floor.o)
 .text          0x0000000000000000        0x0 c:/program files/microchip/xc32/v4.30/bin/bin/../../lib/gcc/pic32mx/8.3.1/../../../../pic32mx/lib/fpu64\libm-musl.a(fma.o)
 .data          0x0000000000000000        0x0 c:/program files/microchip/xc32/v4.30/bin/bin/../../lib/gcc/pic32mx/8.3.1/../../../../pic32mx/lib/fpu64\libm-musl.a(fma.o)
 .bss           0x0000000000000000        0x0 c:/program files/microchip/xc32/v4.30/bin/bin/../../lib/gcc/pic32mx/8.3.1/../../../../pic32mx/lib/fpu64\libm-musl.a(fma.o)
 .reginfo       0x0000000000000000       0x18 c:/program files/microchip/xc32/v4.30/bin/bin/../../lib/gcc/pic32mx/8.3.1/../../../../pic32mx/lib/fpu64\libm-musl.a(fma.o)
 .MIPS.abiflags
                0x0000000000000000       0x18 c:/program files/microchip/xc32/v4.30/bin/bin/../../lib/gcc/pic32mx/8.3.1/../../../../pic32mx/lib/fpu64\libm-musl.a(fma.o)
 .xc_stack_usage
                0x0000000000000000       0x3e c:/program files/microchip/xc32/v4.30/bin/bin/../../lib/gcc/pic32mx/8.3.1/../../../../pic32mx/lib/fpu64\libm-musl.a(fma.o)
 .xc_stack_usage.hdr
                0x0000000000000000        0xe c:/program files/microchip/xc32/v4.30/bin/bin/../../lib/gcc/pic32mx/8.3.1/../../../../pic32mx/lib/fpu64\libm-musl.a(fma.o)
 .note.GNU-stack
                0x0000000000000000        0x0 c:/program files/microchip/xc32/v4.30/bin/bin/../../lib/gcc/pic32mx/8.3.1/../../../../pic32mx/lib/fpu64\libm-musl.a(fma.o)
 .text          0x0000000000000000        0x0 c:/program files/microchip/xc32/v4.30/bin/bin/../../lib/gcc/pic32mx/8.3.1/../../../../pic32mx/lib/fpu64\libm-musl.a(scalbn.o)
 .data          0x0000000000000000        0x0 c:/program files/microchip/xc32/v4.30/bin/bin/../../lib/gcc/pic32mx/8.3.1/../../../../pic32mx/lib/fpu64\libm-musl.a(scalbn.o)
 .bss           0x0000000000000000        0x0 c:/program files/microchip/xc32/v4.30/bin/bin/../../lib/gcc/pic32mx/8.3.1/../../../../pic32mx/lib/fpu64\libm-musl.a(scalbn.o)
 .reginfo       0x0000000000000000       0x18 c:/program files/microchip/xc32/v4.30/bin/bin/../../lib/gcc/pic32mx/8.3.1/../../../../pic32mx/lib/fpu64\libm-musl.a(scalbn.o)
 .MIPS.abiflags
                0x0000000000000000       0x18 c:/program files/microchip/xc32/v4.30/bin/bin/../../lib/gcc/pic32mx/8.3.1/../../../../pic32mx/lib/fpu64\libm-musl.a(scalbn.o)
 .xc_stack_usage
                0x0000000000000000       0x14 c:/program files/microchip/xc32/v4.30/bin/bin/../../lib/gcc/pic32mx/8.3.1/../../../../pic32mx/lib/fpu64\libm-musl.a(scalbn.o)
 .xc_stack_usage.hdr
                0x0000000000000000        0xe c:/program files/microchip/xc32/v4.30/bin/bin/../../lib/gcc/pic32mx/8.3.1/../../../../pic32mx/lib/fpu64\libm-musl.a(scalbn.o)
 .note.GNU-stack
                0x0000000000000000        0x0 c:/program files/microchip/xc32/v4.30/bin/bin/../../lib/gcc/pic32mx/8.3.1/../../../../pic32mx/lib/fpu64\libm-musl.a(scalbn.o)
 .data          0x0000000000000000        0x0 c:/program files/microchip/xc32/v4.30/bin/bin/../../lib/gcc/pic32mx/8.3.1/fpu64\libgcc.a(_lshrdi3.o)
 .bss           0x0000000000000000        0x0 c:/program files/microchip/xc32/v4.30/bin/bin/../../lib/gcc/pic32mx/8.3.1/fpu64\libgcc.a(_lshrdi3.o)
 .reginfo       0x0000000000000000       0x18 c:/program files/microchip/xc32/v4.30/bin/bin/../../lib/gcc/pic32mx/8.3.1/fpu64\libgcc.a(_lshrdi3.o)
 .MIPS.abiflags
                0x0000000000000000       0x18 c:/program files/microchip/xc32/v4.30/bin/bin/../../lib/gcc/pic32mx/8.3.1/fpu64\libgcc.a(_lshrdi3.o)
 .xc_stack_usage
                0x0000000000000000       0x17 c:/program files/microchip/xc32/v4.30/bin/bin/../../lib/gcc/pic32mx/8.3.1/fpu64\libgcc.a(_lshrdi3.o)
 .xc_stack_usage.hdr
                0x0000000000000000        0xe c:/program files/microchip/xc32/v4.30/bin/bin/../../lib/gcc/pic32mx/8.3.1/fpu64\libgcc.a(_lshrdi3.o)
 .data          0x0000000000000000        0x0 c:/program files/microchip/xc32/v4.30/bin/bin/../../lib/gcc/pic32mx/8.3.1/fpu64\libgcc.a(_ashldi3.o)
 .bss           0x0000000000000000        0x0 c:/program files/microchip/xc32/v4.30/bin/bin/../../lib/gcc/pic32mx/8.3.1/fpu64\libgcc.a(_ashldi3.o)
 .reginfo       0x0000000000000000       0x18 c:/program files/microchip/xc32/v4.30/bin/bin/../../lib/gcc/pic32mx/8.3.1/fpu64\libgcc.a(_ashldi3.o)
 .MIPS.abiflags
                0x0000000000000000       0x18 c:/program files/microchip/xc32/v4.30/bin/bin/../../lib/gcc/pic32mx/8.3.1/fpu64\libgcc.a(_ashldi3.o)
 .xc_stack_usage
                0x0000000000000000       0x17 c:/program files/microchip/xc32/v4.30/bin/bin/../../lib/gcc/pic32mx/8.3.1/fpu64\libgcc.a(_ashldi3.o)
 .xc_stack_usage.hdr
                0x0000000000000000        0xe c:/program files/microchip/xc32/v4.30/bin/bin/../../lib/gcc/pic32mx/8.3.1/fpu64\libgcc.a(_ashldi3.o)
 .data          0x0000000000000000        0x0 c:/program files/microchip/xc32/v4.30/bin/bin/../../lib/gcc/pic32mx/8.3.1/fpu64\libgcc.a(_udivdi3.o)
 .bss           0x0000000000000000        0x0 c:/program files/microchip/xc32/v4.30/bin/bin/../../lib/gcc/pic32mx/8.3.1/fpu64\libgcc.a(_udivdi3.o)
 .reginfo       0x0000000000000000       0x18 c:/program files/microchip/xc32/v4.30/bin/bin/../../lib/gcc/pic32mx/8.3.1/fpu64\libgcc.a(_udivdi3.o)
 .MIPS.abiflags
                0x0000000000000000       0x18 c:/program files/microchip/xc32/v4.30/bin/bin/../../lib/gcc/pic32mx/8.3.1/fpu64\libgcc.a(_udivdi3.o)
 .xc_stack_usage
                0x0000000000000000       0x17 c:/program files/microchip/xc32/v4.30/bin/bin/../../lib/gcc/pic32mx/8.3.1/fpu64\libgcc.a(_udivdi3.o)
 .xc_stack_usage.hdr
                0x0000000000000000        0xe c:/program files/microchip/xc32/v4.30/bin/bin/../../lib/gcc/pic32mx/8.3.1/fpu64\libgcc.a(_udivdi3.o)
 .data          0x0000000000000000        0x0 c:/program files/microchip/xc32/v4.30/bin/bin/../../lib/gcc/pic32mx/8.3.1/fpu64\libgcc.a(_umoddi3.o)
 .bss           0x0000000000000000        0x0 c:/program files/microchip/xc32/v4.30/bin/bin/../../lib/gcc/pic32mx/8.3.1/fpu64\libgcc.a(_umoddi3.o)
 .reginfo       0x0000000000000000       0x18 c:/program files/microchip/xc32/v4.30/bin/bin/../../lib/gcc/pic32mx/8.3.1/fpu64\libgcc.a(_umoddi3.o)
 .MIPS.abiflags
                0x0000000000000000       0x18 c:/program files/microchip/xc32/v4.30/bin/bin/../../lib/gcc/pic32mx/8.3.1/fpu64\libgcc.a(_umoddi3.o)
 .xc_stack_usage
                0x0000000000000000       0x17 c:/program files/microchip/xc32/v4.30/bin/bin/../../lib/gcc/pic32mx/8.3.1/fpu64\libgcc.a(_umoddi3.o)
 .xc_stack_usage.hdr
                0x0000000000000000        0xe c:/program files/microchip/xc32/v4.30/bin/bin/../../lib/gcc/pic32mx/8.3.1/fpu64\libgcc.a(_umoddi3.o)
 .text          0x0000000000000000        0x0 c:/program files/microchip/xc32/v4.30/bin/bin/../../lib/gcc/pic32mx/8.3.1/../../../../pic32mx/lib/fpu64\libpic32.a(sbrk.o)
 .data          0x0000000000000000        0x0 c:/program files/microchip/xc32/v4.30/bin/bin/../../lib/gcc/pic32mx/8.3.1/../../../../pic32mx/lib/fpu64\libpic32.a(sbrk.o)
 .reginfo       0x0000000000000000       0x18 c:/program files/microchip/xc32/v4.30/bin/bin/../../lib/gcc/pic32mx/8.3.1/../../../../pic32mx/lib/fpu64\libpic32.a(sbrk.o)
 .MIPS.abiflags
                0x0000000000000000       0x18 c:/program files/microchip/xc32/v4.30/bin/bin/../../lib/gcc/pic32mx/8.3.1/../../../../pic32mx/lib/fpu64\libpic32.a(sbrk.o)
 .xc_stack_usage
                0x0000000000000000       0x77 c:/program files/microchip/xc32/v4.30/bin/bin/../../lib/gcc/pic32mx/8.3.1/../../../../pic32mx/lib/fpu64\libpic32.a(sbrk.o)
 .text.getpagesize
                0x0000000000000000        0x8 c:/program files/microchip/xc32/v4.30/bin/bin/../../lib/gcc/pic32mx/8.3.1/../../../../pic32mx/lib/fpu64\libpic32.a(sbrk.o)
 .text.sbrk     0x0000000000000000       0x4c c:/program files/microchip/xc32/v4.30/bin/bin/../../lib/gcc/pic32mx/8.3.1/../../../../pic32mx/lib/fpu64\libpic32.a(sbrk.o)
 .xc_stack_usage.hdr
                0x0000000000000000        0xe c:/program files/microchip/xc32/v4.30/bin/bin/../../lib/gcc/pic32mx/8.3.1/../../../../pic32mx/lib/fpu64\libpic32.a(sbrk.o)
 .text          0x0000000000000000        0x0 c:/program files/microchip/xc32/v4.30/bin/bin/../../lib/gcc/pic32mx/8.3.1/../../../../pic32mx/lib/fpu64\libpic32.a(_exit.o)
 .data          0x0000000000000000        0x0 c:/program files/microchip/xc32/v4.30/bin/bin/../../lib/gcc/pic32mx/8.3.1/../../../../pic32mx/lib/fpu64\libpic32.a(_exit.o)
 .bss           0x0000000000000000        0x0 c:/program files/microchip/xc32/v4.30/bin/bin/../../lib/gcc/pic32mx/8.3.1/../../../../pic32mx/lib/fpu64\libpic32.a(_exit.o)
 .reginfo       0x0000000000000000       0x18 c:/program files/microchip/xc32/v4.30/bin/bin/../../lib/gcc/pic32mx/8.3.1/../../../../pic32mx/lib/fpu64\libpic32.a(_exit.o)
 .MIPS.abiflags
                0x0000000000000000       0x18 c:/program files/microchip/xc32/v4.30/bin/bin/../../lib/gcc/pic32mx/8.3.1/../../../../pic32mx/lib/fpu64\libpic32.a(_exit.o)
 .xc_stack_usage
                0x0000000000000000       0x13 c:/program files/microchip/xc32/v4.30/bin/bin/../../lib/gcc/pic32mx/8.3.1/../../../../pic32mx/lib/fpu64\libpic32.a(_exit.o)
 .xc_stack_usage.hdr
                0x0000000000000000        0xe c:/program files/microchip/xc32/v4.30/bin/bin/../../lib/gcc/pic32mx/8.3.1/../../../../pic32mx/lib/fpu64\libpic32.a(_exit.o)
 .text          0x0000000000000000        0x0 c:/program files/microchip/xc32/v4.30/bin/bin/../../lib/gcc/pic32mx/8.3.1/../../../../pic32mx/lib/fpu64\libpic32.a(lseek.o)
 .data          0x0000000000000000        0x0 c:/program files/microchip/xc32/v4.30/bin/bin/../../lib/gcc/pic32mx/8.3.1/../../../../pic32mx/lib/fpu64\libpic32.a(lseek.o)
 .bss           0x0000000000000000        0x0 c:/program files/microchip/xc32/v4.30/bin/bin/../../lib/gcc/pic32mx/8.3.1/../../../../pic32mx/lib/fpu64\libpic32.a(lseek.o)
 .reginfo       0x0000000000000000       0x18 c:/program files/microchip/xc32/v4.30/bin/bin/../../lib/gcc/pic32mx/8.3.1/../../../../pic32mx/lib/fpu64\libpic32.a(lseek.o)
 .MIPS.abiflags
                0x0000000000000000       0x18 c:/program files/microchip/xc32/v4.30/bin/bin/../../lib/gcc/pic32mx/8.3.1/../../../../pic32mx/lib/fpu64\libpic32.a(lseek.o)
 .xc_stack_usage
                0x0000000000000000       0x13 c:/program files/microchip/xc32/v4.30/bin/bin/../../lib/gcc/pic32mx/8.3.1/../../../../pic32mx/lib/fpu64\libpic32.a(lseek.o)
 .xc_stack_usage.hdr
                0x0000000000000000        0xe c:/program files/microchip/xc32/v4.30/bin/bin/../../lib/gcc/pic32mx/8.3.1/../../../../pic32mx/lib/fpu64\libpic32.a(lseek.o)
 .text          0x0000000000000000        0x0 c:/program files/microchip/xc32/v4.30/bin/bin/../../lib/gcc/pic32mx/8.3.1/../../../../pic32mx/lib/fpu64\libpic32.a(close.o)
 .data          0x0000000000000000        0x0 c:/program files/microchip/xc32/v4.30/bin/bin/../../lib/gcc/pic32mx/8.3.1/../../../../pic32mx/lib/fpu64\libpic32.a(close.o)
 .bss           0x0000000000000000        0x0 c:/program files/microchip/xc32/v4.30/bin/bin/../../lib/gcc/pic32mx/8.3.1/../../../../pic32mx/lib/fpu64\libpic32.a(close.o)
 .reginfo       0x0000000000000000       0x18 c:/program files/microchip/xc32/v4.30/bin/bin/../../lib/gcc/pic32mx/8.3.1/../../../../pic32mx/lib/fpu64\libpic32.a(close.o)
 .MIPS.abiflags
                0x0000000000000000       0x18 c:/program files/microchip/xc32/v4.30/bin/bin/../../lib/gcc/pic32mx/8.3.1/../../../../pic32mx/lib/fpu64\libpic32.a(close.o)
 .xc_stack_usage
                0x0000000000000000       0x13 c:/program files/microchip/xc32/v4.30/bin/bin/../../lib/gcc/pic32mx/8.3.1/../../../../pic32mx/lib/fpu64\libpic32.a(close.o)
 .xc_stack_usage.hdr
                0x0000000000000000        0xe c:/program files/microchip/xc32/v4.30/bin/bin/../../lib/gcc/pic32mx/8.3.1/../../../../pic32mx/lib/fpu64\libpic32.a(close.o)
 .text          0x0000000000000000        0x0 c:/program files/microchip/xc32/v4.30/bin/bin/../../lib/gcc/pic32mx/8.3.1/../../../../pic32mx/lib/fpu64\libpic32.a(errno.o)
 .data          0x0000000000000000        0x0 c:/program files/microchip/xc32/v4.30/bin/bin/../../lib/gcc/pic32mx/8.3.1/../../../../pic32mx/lib/fpu64\libpic32.a(errno.o)
 .bss           0x0000000000000000        0x0 c:/program files/microchip/xc32/v4.30/bin/bin/../../lib/gcc/pic32mx/8.3.1/../../../../pic32mx/lib/fpu64\libpic32.a(errno.o)
 .reginfo       0x0000000000000000       0x18 c:/program files/microchip/xc32/v4.30/bin/bin/../../lib/gcc/pic32mx/8.3.1/../../../../pic32mx/lib/fpu64\libpic32.a(errno.o)
 .MIPS.abiflags
                0x0000000000000000       0x18 c:/program files/microchip/xc32/v4.30/bin/bin/../../lib/gcc/pic32mx/8.3.1/../../../../pic32mx/lib/fpu64\libpic32.a(errno.o)
 .xc_stack_usage.hdr
                0x0000000000000000        0xe c:/program files/microchip/xc32/v4.30/bin/bin/../../lib/gcc/pic32mx/8.3.1/../../../../pic32mx/lib/fpu64\libpic32.a(errno.o)
 .data          0x0000000000000000        0x0 c:/program files/microchip/xc32/v4.30/bin/bin/../../lib/gcc/pic32mx/8.3.1/../../../../pic32mx/lib/fpu64\libpic32.a(pic32_data_init_clear.o)
 .bss           0x0000000000000000        0x0 c:/program files/microchip/xc32/v4.30/bin/bin/../../lib/gcc/pic32mx/8.3.1/../../../../pic32mx/lib/fpu64\libpic32.a(pic32_data_init_clear.o)
 .reginfo       0x0000000000000000       0x18 c:/program files/microchip/xc32/v4.30/bin/bin/../../lib/gcc/pic32mx/8.3.1/../../../../pic32mx/lib/fpu64\libpic32.a(pic32_data_init_clear.o)
 .MIPS.abiflags
                0x0000000000000000       0x18 c:/program files/microchip/xc32/v4.30/bin/bin/../../lib/gcc/pic32mx/8.3.1/../../../../pic32mx/lib/fpu64\libpic32.a(pic32_data_init_clear.o)
 .xc_stack_usage.hdr
                0x0000000000000000        0xe c:/program files/microchip/xc32/v4.30/bin/bin/../../lib/gcc/pic32mx/8.3.1/../../../../pic32mx/lib/fpu64\libpic32.a(pic32_data_init_clear.o)
 .xc_stack_usage
                0x0000000000000000       0x1b c:/program files/microchip/xc32/v4.30/bin/bin/../../lib/gcc/pic32mx/8.3.1/../../../../pic32mx/lib/fpu64\libpic32.a(pic32_data_init_clear.o)
 .data          0x0000000000000000        0x0 c:/program files/microchip/xc32/v4.30/bin/bin/../../lib/gcc/pic32mx/8.3.1/../../../../pic32mx/lib/fpu64\libpic32.a(pic32_data_init_copy.o)
 .bss           0x0000000000000000        0x0 c:/program files/microchip/xc32/v4.30/bin/bin/../../lib/gcc/pic32mx/8.3.1/../../../../pic32mx/lib/fpu64\libpic32.a(pic32_data_init_copy.o)
 .reginfo       0x0000000000000000       0x18 c:/program files/microchip/xc32/v4.30/bin/bin/../../lib/gcc/pic32mx/8.3.1/../../../../pic32mx/lib/fpu64\libpic32.a(pic32_data_init_copy.o)
 .MIPS.abiflags
                0x0000000000000000       0x18 c:/program files/microchip/xc32/v4.30/bin/bin/../../lib/gcc/pic32mx/8.3.1/../../../../pic32mx/lib/fpu64\libpic32.a(pic32_data_init_copy.o)
 .xc_stack_usage.hdr
                0x0000000000000000        0xe c:/program files/microchip/xc32/v4.30/bin/bin/../../lib/gcc/pic32mx/8.3.1/../../../../pic32mx/lib/fpu64\libpic32.a(pic32_data_init_copy.o)
 .xc_stack_usage
                0x0000000000000000       0x1a c:/program files/microchip/xc32/v4.30/bin/bin/../../lib/gcc/pic32mx/8.3.1/../../../../pic32mx/lib/fpu64\libpic32.a(pic32_data_init_copy.o)

Memory Configuration

Name             Origin             Length             Attributes
kseg0_data_mem   0x0000000080000000 0x0000000000080000 w !x
kseg1_data_mem   0x00000000a0000000 0x0000000000000380
kseg0_program_mem 0x000000009d000000 0x0000000000200000 xr
kseg0_boot_mem   0x000000009fc004b0 0x0000000000000000
kseg1_boot_mem   0x00000000bfc00000 0x0000000000000480
kseg1_boot_mem_4B0 0x00000000bfc004b0 0x000000000000fa50
config_BFC0FF40  0x00000000bfc0ff40 0x0000000000000004
config_BFC0FF44  0x00000000bfc0ff44 0x0000000000000004
config_BFC0FF48  0x00000000bfc0ff48 0x0000000000000004
config_BFC0FF4C  0x00000000bfc0ff4c 0x0000000000000004
config_BFC0FF50  0x00000000bfc0ff50 0x0000000000000004
config_BFC0FF54  0x00000000bfc0ff54 0x0000000000000004
config_BFC0FF58  0x00000000bfc0ff58 0x0000000000000004
config_BFC0FF5C  0x00000000bfc0ff5c 0x0000000000000004
config_BFC0FF60  0x00000000bfc0ff60 0x0000000000000004
config_BFC0FF64  0x00000000bfc0ff64 0x0000000000000004
config_BFC0FF68  0x00000000bfc0ff68 0x0000000000000004
config_BFC0FF6C  0x00000000bfc0ff6c 0x0000000000000004
config_BFC0FF70  0x00000000bfc0ff70 0x0000000000000004
config_BFC0FF74  0x00000000bfc0ff74 0x0000000000000004
config_BFC0FF78  0x00000000bfc0ff78 0x0000000000000004
config_BFC0FF7C  0x00000000bfc0ff7c 0x0000000000000004
config_BFC0FFC0  0x00000000bfc0ffc0 0x0000000000000004
config_BFC0FFC4  0x00000000bfc0ffc4 0x0000000000000004
config_BFC0FFC8  0x00000000bfc0ffc8 0x0000000000000004
config_BFC0FFCC  0x00000000bfc0ffcc 0x0000000000000004
config_BFC0FFD0  0x00000000bfc0ffd0 0x0000000000000004
config_BFC0FFD4  0x00000000bfc0ffd4 0x0000000000000004
config_BFC0FFD8  0x00000000bfc0ffd8 0x0000000000000004
config_BFC0FFDC  0x00000000bfc0ffdc 0x0000000000000004
config_BFC0FFE0  0x00000000bfc0ffe0 0x0000000000000004
config_BFC0FFE4  0x00000000bfc0ffe4 0x0000000000000004
config_BFC0FFE8  0x00000000bfc0ffe8 0x0000000000000004
config_BFC0FFEC  0x00000000bfc0ffec 0x0000000000000004
config_BFC0FFF0  0x00000000bfc0fff0 0x0000000000000004
config_BFC0FFF4  0x00000000bfc0fff4 0x0000000000000004
config_BFC0FFF8  0x00000000bfc0fff8 0x0000000000000004
config_BFC0FFFC  0x00000000bfc0fffc 0x0000000000000004
lowerbootaliaslastpage 0x00000000bfc10000 0x0000000000004000
upperbootalias   0x00000000bfc20000 0x000000000000ff00
config_BFC2FF40  0x00000000bfc2ff40 0x0000000000000004
config_BFC2FF44  0x00000000bfc2ff44 0x0000000000000004
config_BFC2FF48  0x00000000bfc2ff48 0x0000000000000004
config_BFC2FF4C  0x00000000bfc2ff4c 0x0000000000000004
config_BFC2FF50  0x00000000bfc2ff50 0x0000000000000004
config_BFC2FF54  0x00000000bfc2ff54 0x0000000000000004
config_BFC2FF58  0x00000000bfc2ff58 0x0000000000000004
config_BFC2FF5C  0x00000000bfc2ff5c 0x0000000000000004
config_BFC2FF60  0x00000000bfc2ff60 0x0000000000000004
config_BFC2FF64  0x00000000bfc2ff64 0x0000000000000004
config_BFC2FF68  0x00000000bfc2ff68 0x0000000000000004
config_BFC2FF6C  0x00000000bfc2ff6c 0x0000000000000004
config_BFC2FF70  0x00000000bfc2ff70 0x0000000000000004
config_BFC2FF74  0x00000000bfc2ff74 0x0000000000000004
config_BFC2FF78  0x00000000bfc2ff78 0x0000000000000004
config_BFC2FF7C  0x00000000bfc2ff7c 0x0000000000000004
config_BFC2FFC0  0x00000000bfc2ffc0 0x0000000000000004
config_BFC2FFC4  0x00000000bfc2ffc4 0x0000000000000004
config_BFC2FFC8  0x00000000bfc2ffc8 0x0000000000000004
config_BFC2FFCC  0x00000000bfc2ffcc 0x0000000000000004
config_BFC2FFD0  0x00000000bfc2ffd0 0x0000000000000004
config_BFC2FFD4  0x00000000bfc2ffd4 0x0000000000000004
config_BFC2FFD8  0x00000000bfc2ffd8 0x0000000000000004
config_BFC2FFDC  0x00000000bfc2ffdc 0x0000000000000004
config_BFC2FFE0  0x00000000bfc2ffe0 0x0000000000000004
config_BFC2FFE4  0x00000000bfc2ffe4 0x0000000000000004
config_BFC2FFE8  0x00000000bfc2ffe8 0x0000000000000004
config_BFC2FFEC  0x00000000bfc2ffec 0x0000000000000004
config_BFC2FFF0  0x00000000bfc2fff0 0x0000000000000004
config_BFC2FFF4  0x00000000bfc2fff4 0x0000000000000004
config_BFC2FFF8  0x00000000bfc2fff8 0x0000000000000004
config_BFC2FFFC  0x00000000bfc2fffc 0x0000000000000004
upperbootaliaslastpage 0x00000000bfc30000 0x0000000000004000
boot1            0x00000000bfc40000 0x000000000000ff00
config_BFC4FF40  0x00000000bfc4ff40 0x0000000000000004
config_BFC4FF44  0x00000000bfc4ff44 0x0000000000000004
config_BFC4FF48  0x00000000bfc4ff48 0x0000000000000004
config_BFC4FF4C  0x00000000bfc4ff4c 0x0000000000000004
config_BFC4FF50  0x00000000bfc4ff50 0x0000000000000004
config_BFC4FF54  0x00000000bfc4ff54 0x0000000000000004
config_BFC4FF58  0x00000000bfc4ff58 0x0000000000000004
config_BFC4FF5C  0x00000000bfc4ff5c 0x0000000000000004
config_BFC4FF60  0x00000000bfc4ff60 0x0000000000000004
config_BFC4FF64  0x00000000bfc4ff64 0x0000000000000004
config_BFC4FF68  0x00000000bfc4ff68 0x0000000000000004
config_BFC4FF6C  0x00000000bfc4ff6c 0x0000000000000004
config_BFC4FF70  0x00000000bfc4ff70 0x0000000000000004
config_BFC4FF74  0x00000000bfc4ff74 0x0000000000000004
config_BFC4FF78  0x00000000bfc4ff78 0x0000000000000004
config_BFC4FF7C  0x00000000bfc4ff7c 0x0000000000000004
config_BFC4FFC0  0x00000000bfc4ffc0 0x0000000000000004
config_BFC4FFC4  0x00000000bfc4ffc4 0x0000000000000004
config_BFC4FFC8  0x00000000bfc4ffc8 0x0000000000000004
config_BFC4FFCC  0x00000000bfc4ffcc 0x0000000000000004
config_BFC4FFD0  0x00000000bfc4ffd0 0x0000000000000004
config_BFC4FFD4  0x00000000bfc4ffd4 0x0000000000000004
config_BFC4FFD8  0x00000000bfc4ffd8 0x0000000000000004
config_BFC4FFDC  0x00000000bfc4ffdc 0x0000000000000004
config_BFC4FFE0  0x00000000bfc4ffe0 0x0000000000000004
config_BFC4FFE4  0x00000000bfc4ffe4 0x0000000000000004
config_BFC4FFE8  0x00000000bfc4ffe8 0x0000000000000004
config_BFC4FFEC  0x00000000bfc4ffec 0x0000000000000004
config_BFC4FFF0  0x00000000bfc4fff0 0x0000000000000004
config_BFC4FFF4  0x00000000bfc4fff4 0x0000000000000004
config_BFC4FFF8  0x00000000bfc4fff8 0x0000000000000004
config_BFC4FFFC  0x00000000bfc4fffc 0x0000000000000004
boot1lastpage    0x00000000bfc50000 0x0000000000004000
config_BFC54000  0x00000000bfc54000 0x0000000000000004
config_BFC54004  0x00000000bfc54004 0x0000000000000004
config_BFC54008  0x00000000bfc54008 0x0000000000000004
config_BFC5400C  0x00000000bfc5400c 0x0000000000000004
config_BFC54010  0x00000000bfc54010 0x0000000000000004
config_BFC5401C  0x00000000bfc5401c 0x0000000000000004
config_BFC54020  0x00000000bfc54020 0x0000000000000004
config_BFC54024  0x00000000bfc54024 0x0000000000000004
boot2            0x00000000bfc60000 0x000000000000ff00
config_BFC6FF40  0x00000000bfc6ff40 0x0000000000000004
config_BFC6FF44  0x00000000bfc6ff44 0x0000000000000004
config_BFC6FF48  0x00000000bfc6ff48 0x0000000000000004
config_BFC6FF4C  0x00000000bfc6ff4c 0x0000000000000004
config_BFC6FF50  0x00000000bfc6ff50 0x0000000000000004
config_BFC6FF54  0x00000000bfc6ff54 0x0000000000000004
config_BFC6FF58  0x00000000bfc6ff58 0x0000000000000004
config_BFC6FF5C  0x00000000bfc6ff5c 0x0000000000000004
config_BFC6FF60  0x00000000bfc6ff60 0x0000000000000004
config_BFC6FF64  0x00000000bfc6ff64 0x0000000000000004
config_BFC6FF68  0x00000000bfc6ff68 0x0000000000000004
config_BFC6FF6C  0x00000000bfc6ff6c 0x0000000000000004
config_BFC6FF70  0x00000000bfc6ff70 0x0000000000000004
config_BFC6FF74  0x00000000bfc6ff74 0x0000000000000004
config_BFC6FF78  0x00000000bfc6ff78 0x0000000000000004
config_BFC6FF7C  0x00000000bfc6ff7c 0x0000000000000004
config_BFC6FFC0  0x00000000bfc6ffc0 0x0000000000000004
config_BFC6FFC4  0x00000000bfc6ffc4 0x0000000000000004
config_BFC6FFC8  0x00000000bfc6ffc8 0x0000000000000004
config_BFC6FFCC  0x00000000bfc6ffcc 0x0000000000000004
config_BFC6FFD0  0x00000000bfc6ffd0 0x0000000000000004
config_BFC6FFD4  0x00000000bfc6ffd4 0x0000000000000004
config_BFC6FFD8  0x00000000bfc6ffd8 0x0000000000000004
config_BFC6FFDC  0x00000000bfc6ffdc 0x0000000000000004
config_BFC6FFE0  0x00000000bfc6ffe0 0x0000000000000004
config_BFC6FFE4  0x00000000bfc6ffe4 0x0000000000000004
config_BFC6FFE8  0x00000000bfc6ffe8 0x0000000000000004
config_BFC6FFEC  0x00000000bfc6ffec 0x0000000000000004
config_BFC6FFF0  0x00000000bfc6fff0 0x0000000000000004
config_BFC6FFF4  0x00000000bfc6fff4 0x0000000000000004
config_BFC6FFF8  0x00000000bfc6fff8 0x0000000000000004
config_BFC6FFFC  0x00000000bfc6fffc 0x0000000000000004
boot2lastpage    0x00000000bfc70000 0x0000000000004000
sfrs             0x00000000bf800000 0x0000000000100000
configsfrs_BFC0FF40 0x00000000bfc0ff40 0x0000000000000040
configsfrs_BFC0FFC0 0x00000000bfc0ffc0 0x0000000000000040
configsfrs_BFC2FF40 0x00000000bfc2ff40 0x0000000000000040
configsfrs_BFC2FFC0 0x00000000bfc2ffc0 0x0000000000000040
configsfrs_BFC4FF40 0x00000000bfc4ff40 0x0000000000000040
configsfrs_BFC4FFC0 0x00000000bfc4ffc0 0x0000000000000040
configsfrs_BFC54000 0x00000000bfc54000 0x0000000000000020
configsfrs_BFC6FF40 0x00000000bfc6ff40 0x0000000000000040
configsfrs_BFC6FFC0 0x00000000bfc6ffc0 0x0000000000000040
kseg2_ebi_data_mem 0x00000000c0000000 0x0000000004000000
kseg2_sqi_data_mem 0x00000000d0000000 0x0000000004000000
kseg3_ebi_data_mem 0x00000000e0000000 0x0000000004000000
kseg3_sqi_data_mem 0x00000000f0000000 0x0000000004000000
*default*        0x0000000000000000 0xffffffffffffffff

Linker script and memory map


reserve_data_0_kseg0
                0x0000000080000000      0x380
                0x0000000080000000        0x2 SHORT 0x0
                0x0000000000000380                . = 0x380
 *fill*         0x0000000080000002      0x37e 
                0x0000000080000380                . = ALIGN (0x4)

reserve_data_0_kseg1
                0x00000000a0000000      0x380
                0x00000000a0000000        0x2 SHORT 0x0
                0x0000000000000380                . = 0x380
 *fill*         0x00000000a0000002      0x37e 
                0x00000000a0000380                . = ALIGN (0x4)
LOAD c:/program files/microchip/xc32/v4.30/bin/bin/../../lib/gcc/pic32mx/8.3.1/../../../../pic32mx/lib/fpu64\software-debug-break.o
LOAD build/default/debug/_ext/1984157808/plib_cache.o
LOAD build/default/debug/_ext/1984157808/plib_cache_pic32mz.o
LOAD build/default/debug/_ext/60165520/plib_clk.o
LOAD build/default/debug/_ext/1249264884/plib_coretimer.o
LOAD build/default/debug/_ext/1865200349/plib_evic.o
LOAD build/default/debug/_ext/1865254177/plib_gpio.o
LOAD build/default/debug/_ext/60179596/plib_ram.o
LOAD build/default/debug/_ext/60184501/plib_wdt.o
LOAD build/default/debug/_ext/163028504/xc32_monitor.o
LOAD build/default/debug/_ext/1014039709/sys_cache.o
LOAD build/default/debug/_ext/14461671/sys_dma.o
LOAD build/default/debug/_ext/1881668453/sys_int.o
LOAD build/default/debug/_ext/1000052432/sys_reset.o
LOAD build/default/debug/_ext/1171490990/interrupts.o
LOAD build/default/debug/_ext/1171490990/initialization.o
LOAD build/default/debug/_ext/1171490990/tasks.o
LOAD build/default/debug/_ext/1171490990/exceptions.o
LOAD build/default/debug/heartbeat_timer.o
LOAD build/default/debug/_ext/1360937237/main.o
LOAD build/default/debug/_ext/1865657120/plib_uart3.o
LOAD build/default/debug/_ext/1865585524/plib_rtcc.o
LOAD build/default/debug/_ext/513455433/plib_i2c5_master.o
LOAD build/default/debug/_ext/1865161661/plib_dmac.o
LOAD build/default/debug/usb_uart.o
LOAD build/default/debug/usb_uart_rx_lookup_table.o
LOAD build/default/debug/terminal_control.o
                0x0000000000000001                __MPLAB_BUILD = 0x1
                0x0000000000000400                PROVIDE (_min_stack_size = 0x400)
START GROUP
LOAD vector_offset_init.o
END GROUP
                0x0000000000000001                PROVIDE (_vector_spacing = 0x1)
                0x000000009d000000                PROVIDE (_ebase_address = 0x9d000000)
                0x00000000bfc00000                _RESET_ADDR = 0xbfc00000
                0x00000000bfc00380                _BEV_EXCPT_ADDR = 0xbfc00380
                0x00000000bfc00480                _DBG_EXCPT_ADDR = 0xbfc00480
                0x000000009d000000                _SIMPLE_TLB_REFILL_EXCPT_ADDR = (_ebase_address + 0x0)
                0x000000009d000100                _CACHE_ERR_EXCPT_ADDR = (_ebase_address + 0x100)
                0x000000009d000180                _GEN_EXCPT_ADDR = (_ebase_address + 0x180)

.config_BFC0FF40
 *(.config_BFC0FF40)

.config_BFC0FF44
 *(.config_BFC0FF44)

.config_BFC0FF48
 *(.config_BFC0FF48)

.config_BFC0FF4C
 *(.config_BFC0FF4C)

.config_BFC0FF50
 *(.config_BFC0FF50)

.config_BFC0FF54
 *(.config_BFC0FF54)

.config_BFC0FF58
 *(.config_BFC0FF58)

.config_BFC0FF5C
 *(.config_BFC0FF5C)

.config_BFC0FF60
 *(.config_BFC0FF60)

.config_BFC0FF64
 *(.config_BFC0FF64)

.config_BFC0FF68
 *(.config_BFC0FF68)

.config_BFC0FF6C
 *(.config_BFC0FF6C)

.config_BFC0FF70
 *(.config_BFC0FF70)

.config_BFC0FF74
 *(.config_BFC0FF74)

.config_BFC0FF78
 *(.config_BFC0FF78)

.config_BFC0FF7C
 *(.config_BFC0FF7C)

.config_BFC0FFC0
 *(.config_BFC0FFC0)

.config_BFC0FFC4
 *(.config_BFC0FFC4)

.config_BFC0FFC8
 *(.config_BFC0FFC8)

.config_BFC0FFCC
 *(.config_BFC0FFCC)

.config_BFC0FFD0
 *(.config_BFC0FFD0)

.config_BFC0FFD4
 *(.config_BFC0FFD4)

.config_BFC0FFD8
 *(.config_BFC0FFD8)

.config_BFC0FFDC
 *(.config_BFC0FFDC)

.config_BFC0FFE0
 *(.config_BFC0FFE0)

.config_BFC0FFE4
 *(.config_BFC0FFE4)

.config_BFC0FFE8
 *(.config_BFC0FFE8)

.config_BFC0FFEC
 *(.config_BFC0FFEC)

.config_BFC0FFF0
 *(.config_BFC0FFF0)

.config_BFC0FFF4
 *(.config_BFC0FFF4)

.config_BFC0FFF8
 *(.config_BFC0FFF8)

.config_BFC0FFFC
 *(.config_BFC0FFFC)

.config_BFC2FF40
 *(.config_BFC2FF40)

.config_BFC2FF44
 *(.config_BFC2FF44)

.config_BFC2FF48
 *(.config_BFC2FF48)

.config_BFC2FF4C
 *(.config_BFC2FF4C)

.config_BFC2FF50
 *(.config_BFC2FF50)

.config_BFC2FF54
 *(.config_BFC2FF54)

.config_BFC2FF58
 *(.config_BFC2FF58)

.config_BFC2FF5C
 *(.config_BFC2FF5C)

.config_BFC2FF60
 *(.config_BFC2FF60)

.config_BFC2FF64
 *(.config_BFC2FF64)

.config_BFC2FF68
 *(.config_BFC2FF68)

.config_BFC2FF6C
 *(.config_BFC2FF6C)

.config_BFC2FF70
 *(.config_BFC2FF70)

.config_BFC2FF74
 *(.config_BFC2FF74)

.config_BFC2FF78
 *(.config_BFC2FF78)

.config_BFC2FF7C
 *(.config_BFC2FF7C)

.config_BFC2FFC0
 *(.config_BFC2FFC0)

.config_BFC2FFC4
 *(.config_BFC2FFC4)

.config_BFC2FFC8
 *(.config_BFC2FFC8)

.config_BFC2FFCC
 *(.config_BFC2FFCC)

.config_BFC2FFD0
 *(.config_BFC2FFD0)

.config_BFC2FFD4
 *(.config_BFC2FFD4)

.config_BFC2FFD8
 *(.config_BFC2FFD8)

.config_BFC2FFDC
 *(.config_BFC2FFDC)

.config_BFC2FFE0
 *(.config_BFC2FFE0)

.config_BFC2FFE4
 *(.config_BFC2FFE4)

.config_BFC2FFE8
 *(.config_BFC2FFE8)

.config_BFC2FFEC
 *(.config_BFC2FFEC)

.config_BFC2FFF0
 *(.config_BFC2FFF0)

.config_BFC2FFF4
 *(.config_BFC2FFF4)

.config_BFC2FFF8
 *(.config_BFC2FFF8)

.config_BFC2FFFC
 *(.config_BFC2FFFC)

.config_BFC4FF40
 *(.config_BFC4FF40)

.config_BFC4FF44
 *(.config_BFC4FF44)

.config_BFC4FF48
 *(.config_BFC4FF48)

.config_BFC4FF4C
 *(.config_BFC4FF4C)

.config_BFC4FF50
 *(.config_BFC4FF50)

.config_BFC4FF54
 *(.config_BFC4FF54)

.config_BFC4FF58
 *(.config_BFC4FF58)

.config_BFC4FF5C
 *(.config_BFC4FF5C)

.config_BFC4FF60
 *(.config_BFC4FF60)

.config_BFC4FF64
 *(.config_BFC4FF64)

.config_BFC4FF68
 *(.config_BFC4FF68)

.config_BFC4FF6C
 *(.config_BFC4FF6C)

.config_BFC4FF70
 *(.config_BFC4FF70)

.config_BFC4FF74
 *(.config_BFC4FF74)

.config_BFC4FF78
 *(.config_BFC4FF78)

.config_BFC4FF7C
 *(.config_BFC4FF7C)

.config_BFC4FFC0
 *(.config_BFC4FFC0)

.config_BFC4FFC4
 *(.config_BFC4FFC4)

.config_BFC4FFC8
 *(.config_BFC4FFC8)

.config_BFC4FFCC
 *(.config_BFC4FFCC)

.config_BFC4FFD0
 *(.config_BFC4FFD0)

.config_BFC4FFD4
 *(.config_BFC4FFD4)

.config_BFC4FFD8
 *(.config_BFC4FFD8)

.config_BFC4FFDC
 *(.config_BFC4FFDC)

.config_BFC4FFE0
 *(.config_BFC4FFE0)

.config_BFC4FFE4
 *(.config_BFC4FFE4)

.config_BFC4FFE8
 *(.config_BFC4FFE8)

.config_BFC4FFEC
 *(.config_BFC4FFEC)

.config_BFC4FFF0
 *(.config_BFC4FFF0)

.config_BFC4FFF4
 *(.config_BFC4FFF4)

.config_BFC4FFF8
 *(.config_BFC4FFF8)

.config_BFC4FFFC
 *(.config_BFC4FFFC)

.config_BFC54000
 *(.config_BFC54000)

.config_BFC54004
 *(.config_BFC54004)

.config_BFC54008
 *(.config_BFC54008)

.config_BFC5400C
 *(.config_BFC5400C)

.config_BFC54010
 *(.config_BFC54010)

.config_BFC5401C
 *(.config_BFC5401C)

.config_BFC54020
 *(.config_BFC54020)

.config_BFC54024
 *(.config_BFC54024)

.config_BFC6FF40
 *(.config_BFC6FF40)

.config_BFC6FF44
 *(.config_BFC6FF44)

.config_BFC6FF48
 *(.config_BFC6FF48)

.config_BFC6FF4C
 *(.config_BFC6FF4C)

.config_BFC6FF50
 *(.config_BFC6FF50)

.config_BFC6FF54
 *(.config_BFC6FF54)

.config_BFC6FF58
 *(.config_BFC6FF58)

.config_BFC6FF5C
 *(.config_BFC6FF5C)

.config_BFC6FF60
 *(.config_BFC6FF60)

.config_BFC6FF64
 *(.config_BFC6FF64)

.config_BFC6FF68
 *(.config_BFC6FF68)

.config_BFC6FF6C
 *(.config_BFC6FF6C)

.config_BFC6FF70
 *(.config_BFC6FF70)

.config_BFC6FF74
 *(.config_BFC6FF74)

.config_BFC6FF78
 *(.config_BFC6FF78)

.config_BFC6FF7C
 *(.config_BFC6FF7C)

.config_BFC6FFC0
 *(.config_BFC6FFC0)

.config_BFC6FFC4
 *(.config_BFC6FFC4)

.config_BFC6FFC8
 *(.config_BFC6FFC8)

.config_BFC6FFCC
 *(.config_BFC6FFCC)

.config_BFC6FFD0
 *(.config_BFC6FFD0)

.config_BFC6FFD4
 *(.config_BFC6FFD4)

.config_BFC6FFD8
 *(.config_BFC6FFD8)

.config_BFC6FFDC
 *(.config_BFC6FFDC)

.config_BFC6FFE0
 *(.config_BFC6FFE0)

.config_BFC6FFE4
 *(.config_BFC6FFE4)

.config_BFC6FFE8
 *(.config_BFC6FFE8)

.config_BFC6FFEC
 *(.config_BFC6FFEC)

.config_BFC6FFF0
 *(.config_BFC6FFF0)

.config_BFC6FFF4
 *(.config_BFC6FFF4)

.config_BFC6FFF8
 *(.config_BFC6FFF8)

.config_BFC6FFFC
 *(.config_BFC6FFFC)

.reset          0x00000000bfc00000      0x1c4
 *(.reset)
 .reset         0x00000000bfc00000       0x18 C:\Users\drewm\AppData\Local\Temp\ccEOzkaJ.o
                0x00000000bfc00000                _reset
 *(.reset.startup)
 .reset.startup
                0x00000000bfc00018      0x1ac C:\Users\drewm\AppData\Local\Temp\ccEOzkaJ.o
                0x00000000bfc00018                _startup

.bev_excpt      0x00000000bfc00380       0x10
 *(.bev_handler)
 .bev_handler   0x00000000bfc00380       0x10 C:\Users\drewm\AppData\Local\Temp\ccEOzkaJ.o

.cache_init     0x00000000bfc004b0      0x1c0
 *(.cache_init)
 *(.cache_init.*)
 .cache_init.cache
                0x00000000bfc004b0       0xc0 c:/program files/microchip/xc32/v4.30/bin/bin/../../lib/gcc/pic32mx/8.3.1/../../../../pic32mx/lib/fpu64\libpic32.a(pic32_init_cache.o)
 .cache_init.pic32_init_cache
                0x00000000bfc00570      0x100 c:/program files/microchip/xc32/v4.30/bin/bin/../../lib/gcc/pic32mx/8.3.1/../../../../pic32mx/lib/fpu64\libpic32.a(pic32_init_cache.o)
                0x00000000bfc00570                __pic32_init_cache

.simple_tlb_refill_excpt
                0x000000009d000000       0x10
 *(.simple_tlb_refill_vector)
 .simple_tlb_refill_vector
                0x000000009d000000       0x10 C:\Users\drewm\AppData\Local\Temp\ccEOzkaJ.o

.cache_err_excpt
                0x000000009d000100       0x10
 *(.cache_err_vector)
 .cache_err_vector
                0x000000009d000100       0x10 C:\Users\drewm\AppData\Local\Temp\ccEOzkaJ.o

.app_excpt      0x000000009d000180       0x10
 *(.gen_handler)
 .gen_handler   0x000000009d000180       0x10 C:\Users\drewm\AppData\Local\Temp\ccEOzkaJ.o

.vectors        0x000000009d000200       0x90
                0x000000009d000200                . = ALIGN (0x4)
                0x0000000000000200                __vector_offset_0 = DEFINED (__vector_dispatch_0)?(. - _ebase_address):__vector_offset_default
 *(.vector_0)
 .vector_0      0x000000009d000200        0x8 build/default/debug/_ext/1171490990/interrupts.o
                0x000000009d000200                __vector_dispatch_0
                0x000000009d000208                . = ALIGN (0x4)
                0x0000000000000248                __vector_offset_1 = DEFINED (__vector_dispatch_1)?(. - _ebase_address):__vector_offset_default
 *(.vector_1)
                0x000000009d000208                . = ALIGN (0x4)
                0x0000000000000248                __vector_offset_2 = DEFINED (__vector_dispatch_2)?(. - _ebase_address):__vector_offset_default
 *(.vector_2)
                0x000000009d000208                . = ALIGN (0x4)
                0x0000000000000248                __vector_offset_3 = DEFINED (__vector_dispatch_3)?(. - _ebase_address):__vector_offset_default
 *(.vector_3)
                0x000000009d000208                . = ALIGN (0x4)
                0x0000000000000248                __vector_offset_4 = DEFINED (__vector_dispatch_4)?(. - _ebase_address):__vector_offset_default
 *(.vector_4)
                0x000000009d000208                . = ALIGN (0x4)
                0x0000000000000248                __vector_offset_5 = DEFINED (__vector_dispatch_5)?(. - _ebase_address):__vector_offset_default
 *(.vector_5)
                0x000000009d000208                . = ALIGN (0x4)
                0x0000000000000248                __vector_offset_6 = DEFINED (__vector_dispatch_6)?(. - _ebase_address):__vector_offset_default
 *(.vector_6)
                0x000000009d000208                . = ALIGN (0x4)
                0x0000000000000248                __vector_offset_7 = DEFINED (__vector_dispatch_7)?(. - _ebase_address):__vector_offset_default
 *(.vector_7)
                0x000000009d000208                . = ALIGN (0x4)
                0x0000000000000248                __vector_offset_8 = DEFINED (__vector_dispatch_8)?(. - _ebase_address):__vector_offset_default
 *(.vector_8)
                0x000000009d000208                . = ALIGN (0x4)
                0x0000000000000248                __vector_offset_9 = DEFINED (__vector_dispatch_9)?(. - _ebase_address):__vector_offset_default
 *(.vector_9)
                0x000000009d000208                . = ALIGN (0x4)
                0x0000000000000248                __vector_offset_10 = DEFINED (__vector_dispatch_10)?(. - _ebase_address):__vector_offset_default
 *(.vector_10)
                0x000000009d000208                . = ALIGN (0x4)
                0x0000000000000248                __vector_offset_11 = DEFINED (__vector_dispatch_11)?(. - _ebase_address):__vector_offset_default
 *(.vector_11)
                0x000000009d000208                . = ALIGN (0x4)
                0x0000000000000248                __vector_offset_12 = DEFINED (__vector_dispatch_12)?(. - _ebase_address):__vector_offset_default
 *(.vector_12)
                0x000000009d000208                . = ALIGN (0x4)
                0x0000000000000248                __vector_offset_13 = DEFINED (__vector_dispatch_13)?(. - _ebase_address):__vector_offset_default
 *(.vector_13)
                0x000000009d000208                . = ALIGN (0x4)
                0x0000000000000248                __vector_offset_14 = DEFINED (__vector_dispatch_14)?(. - _ebase_address):__vector_offset_default
 *(.vector_14)
                0x000000009d000208                . = ALIGN (0x4)
                0x0000000000000248                __vector_offset_15 = DEFINED (__vector_dispatch_15)?(. - _ebase_address):__vector_offset_default
 *(.vector_15)
                0x000000009d000208                . = ALIGN (0x4)
                0x0000000000000248                __vector_offset_16 = DEFINED (__vector_dispatch_16)?(. - _ebase_address):__vector_offset_default
 *(.vector_16)
                0x000000009d000208                . = ALIGN (0x4)
                0x0000000000000248                __vector_offset_17 = DEFINED (__vector_dispatch_17)?(. - _ebase_address):__vector_offset_default
 *(.vector_17)
                0x000000009d000208                . = ALIGN (0x4)
                0x0000000000000248                __vector_offset_18 = DEFINED (__vector_dispatch_18)?(. - _ebase_address):__vector_offset_default
 *(.vector_18)
                0x000000009d000208                . = ALIGN (0x4)
                0x0000000000000248                __vector_offset_19 = DEFINED (__vector_dispatch_19)?(. - _ebase_address):__vector_offset_default
 *(.vector_19)
                0x000000009d000208                . = ALIGN (0x4)
                0x0000000000000248                __vector_offset_20 = DEFINED (__vector_dispatch_20)?(. - _ebase_address):__vector_offset_default
 *(.vector_20)
                0x000000009d000208                . = ALIGN (0x4)
                0x0000000000000248                __vector_offset_21 = DEFINED (__vector_dispatch_21)?(. - _ebase_address):__vector_offset_default
 *(.vector_21)
                0x000000009d000208                . = ALIGN (0x4)
                0x0000000000000248                __vector_offset_22 = DEFINED (__vector_dispatch_22)?(. - _ebase_address):__vector_offset_default
 *(.vector_22)
                0x000000009d000208                . = ALIGN (0x4)
                0x0000000000000248                __vector_offset_23 = DEFINED (__vector_dispatch_23)?(. - _ebase_address):__vector_offset_default
 *(.vector_23)
                0x000000009d000208                . = ALIGN (0x4)
                0x0000000000000248                __vector_offset_24 = DEFINED (__vector_dispatch_24)?(. - _ebase_address):__vector_offset_default
 *(.vector_24)
                0x000000009d000208                . = ALIGN (0x4)
                0x0000000000000248                __vector_offset_25 = DEFINED (__vector_dispatch_25)?(. - _ebase_address):__vector_offset_default
 *(.vector_25)
                0x000000009d000208                . = ALIGN (0x4)
                0x0000000000000248                __vector_offset_26 = DEFINED (__vector_dispatch_26)?(. - _ebase_address):__vector_offset_default
 *(.vector_26)
                0x000000009d000208                . = ALIGN (0x4)
                0x0000000000000248                __vector_offset_27 = DEFINED (__vector_dispatch_27)?(. - _ebase_address):__vector_offset_default
 *(.vector_27)
                0x000000009d000208                . = ALIGN (0x4)
                0x0000000000000248                __vector_offset_28 = DEFINED (__vector_dispatch_28)?(. - _ebase_address):__vector_offset_default
 *(.vector_28)
                0x000000009d000208                . = ALIGN (0x4)
                0x0000000000000248                __vector_offset_29 = DEFINED (__vector_dispatch_29)?(. - _ebase_address):__vector_offset_default
 *(.vector_29)
                0x000000009d000208                . = ALIGN (0x4)
                0x0000000000000248                __vector_offset_30 = DEFINED (__vector_dispatch_30)?(. - _ebase_address):__vector_offset_default
 *(.vector_30)
                0x000000009d000208                . = ALIGN (0x4)
                0x0000000000000248                __vector_offset_31 = DEFINED (__vector_dispatch_31)?(. - _ebase_address):__vector_offset_default
 *(.vector_31)
                0x000000009d000208                . = ALIGN (0x4)
                0x0000000000000248                __vector_offset_32 = DEFINED (__vector_dispatch_32)?(. - _ebase_address):__vector_offset_default
 *(.vector_32)
                0x000000009d000208                . = ALIGN (0x4)
                0x0000000000000248                __vector_offset_33 = DEFINED (__vector_dispatch_33)?(. - _ebase_address):__vector_offset_default
 *(.vector_33)
                0x000000009d000208                . = ALIGN (0x4)
                0x0000000000000248                __vector_offset_34 = DEFINED (__vector_dispatch_34)?(. - _ebase_address):__vector_offset_default
 *(.vector_34)
                0x000000009d000208                . = ALIGN (0x4)
                0x0000000000000248                __vector_offset_35 = DEFINED (__vector_dispatch_35)?(. - _ebase_address):__vector_offset_default
 *(.vector_35)
                0x000000009d000208                . = ALIGN (0x4)
                0x0000000000000248                __vector_offset_36 = DEFINED (__vector_dispatch_36)?(. - _ebase_address):__vector_offset_default
 *(.vector_36)
                0x000000009d000208                . = ALIGN (0x4)
                0x0000000000000248                __vector_offset_37 = DEFINED (__vector_dispatch_37)?(. - _ebase_address):__vector_offset_default
 *(.vector_37)
                0x000000009d000208                . = ALIGN (0x4)
                0x0000000000000248                __vector_offset_38 = DEFINED (__vector_dispatch_38)?(. - _ebase_address):__vector_offset_default
 *(.vector_38)
                0x000000009d000208                . = ALIGN (0x4)
                0x0000000000000248                __vector_offset_39 = DEFINED (__vector_dispatch_39)?(. - _ebase_address):__vector_offset_default
 *(.vector_39)
                0x000000009d000208                . = ALIGN (0x4)
                0x0000000000000248                __vector_offset_40 = DEFINED (__vector_dispatch_40)?(. - _ebase_address):__vector_offset_default
 *(.vector_40)
                0x000000009d000208                . = ALIGN (0x4)
                0x0000000000000248                __vector_offset_41 = DEFINED (__vector_dispatch_41)?(. - _ebase_address):__vector_offset_default
 *(.vector_41)
                0x000000009d000208                . = ALIGN (0x4)
                0x0000000000000248                __vector_offset_42 = DEFINED (__vector_dispatch_42)?(. - _ebase_address):__vector_offset_default
 *(.vector_42)
                0x000000009d000208                . = ALIGN (0x4)
                0x0000000000000248                __vector_offset_43 = DEFINED (__vector_dispatch_43)?(. - _ebase_address):__vector_offset_default
 *(.vector_43)
                0x000000009d000208                . = ALIGN (0x4)
                0x0000000000000248                __vector_offset_44 = DEFINED (__vector_dispatch_44)?(. - _ebase_address):__vector_offset_default
 *(.vector_44)
                0x000000009d000208                . = ALIGN (0x4)
                0x0000000000000248                __vector_offset_45 = DEFINED (__vector_dispatch_45)?(. - _ebase_address):__vector_offset_default
 *(.vector_45)
                0x000000009d000208                . = ALIGN (0x4)
                0x0000000000000248                __vector_offset_46 = DEFINED (__vector_dispatch_46)?(. - _ebase_address):__vector_offset_default
 *(.vector_46)
                0x000000009d000208                . = ALIGN (0x4)
                0x0000000000000248                __vector_offset_47 = DEFINED (__vector_dispatch_47)?(. - _ebase_address):__vector_offset_default
 *(.vector_47)
                0x000000009d000208                . = ALIGN (0x4)
                0x0000000000000248                __vector_offset_48 = DEFINED (__vector_dispatch_48)?(. - _ebase_address):__vector_offset_default
 *(.vector_48)
                0x000000009d000208                . = ALIGN (0x4)
                0x0000000000000248                __vector_offset_49 = DEFINED (__vector_dispatch_49)?(. - _ebase_address):__vector_offset_default
 *(.vector_49)
                0x000000009d000208                . = ALIGN (0x4)
                0x0000000000000248                __vector_offset_50 = DEFINED (__vector_dispatch_50)?(. - _ebase_address):__vector_offset_default
 *(.vector_50)
                0x000000009d000208                . = ALIGN (0x4)
                0x0000000000000248                __vector_offset_51 = DEFINED (__vector_dispatch_51)?(. - _ebase_address):__vector_offset_default
 *(.vector_51)
                0x000000009d000208                . = ALIGN (0x4)
                0x0000000000000248                __vector_offset_52 = DEFINED (__vector_dispatch_52)?(. - _ebase_address):__vector_offset_default
 *(.vector_52)
                0x000000009d000208                . = ALIGN (0x4)
                0x0000000000000248                __vector_offset_53 = DEFINED (__vector_dispatch_53)?(. - _ebase_address):__vector_offset_default
 *(.vector_53)
                0x000000009d000208                . = ALIGN (0x4)
                0x0000000000000248                __vector_offset_54 = DEFINED (__vector_dispatch_54)?(. - _ebase_address):__vector_offset_default
 *(.vector_54)
                0x000000009d000208                . = ALIGN (0x4)
                0x0000000000000248                __vector_offset_55 = DEFINED (__vector_dispatch_55)?(. - _ebase_address):__vector_offset_default
 *(.vector_55)
                0x000000009d000208                . = ALIGN (0x4)
                0x0000000000000248                __vector_offset_56 = DEFINED (__vector_dispatch_56)?(. - _ebase_address):__vector_offset_default
 *(.vector_56)
                0x000000009d000208                . = ALIGN (0x4)
                0x0000000000000248                __vector_offset_57 = DEFINED (__vector_dispatch_57)?(. - _ebase_address):__vector_offset_default
 *(.vector_57)
                0x000000009d000208                . = ALIGN (0x4)
                0x0000000000000248                __vector_offset_58 = DEFINED (__vector_dispatch_58)?(. - _ebase_address):__vector_offset_default
 *(.vector_58)
                0x000000009d000208                . = ALIGN (0x4)
                0x0000000000000248                __vector_offset_59 = DEFINED (__vector_dispatch_59)?(. - _ebase_address):__vector_offset_default
 *(.vector_59)
                0x000000009d000208                . = ALIGN (0x4)
                0x0000000000000248                __vector_offset_60 = DEFINED (__vector_dispatch_60)?(. - _ebase_address):__vector_offset_default
 *(.vector_60)
                0x000000009d000208                . = ALIGN (0x4)
                0x0000000000000248                __vector_offset_61 = DEFINED (__vector_dispatch_61)?(. - _ebase_address):__vector_offset_default
 *(.vector_61)
                0x000000009d000208                . = ALIGN (0x4)
                0x0000000000000248                __vector_offset_62 = DEFINED (__vector_dispatch_62)?(. - _ebase_address):__vector_offset_default
 *(.vector_62)
                0x000000009d000208                . = ALIGN (0x4)
                0x0000000000000248                __vector_offset_63 = DEFINED (__vector_dispatch_63)?(. - _ebase_address):__vector_offset_default
 *(.vector_63)
                0x000000009d000208                . = ALIGN (0x4)
                0x0000000000000248                __vector_offset_64 = DEFINED (__vector_dispatch_64)?(. - _ebase_address):__vector_offset_default
 *(.vector_64)
                0x000000009d000208                . = ALIGN (0x4)
                0x0000000000000248                __vector_offset_65 = DEFINED (__vector_dispatch_65)?(. - _ebase_address):__vector_offset_default
 *(.vector_65)
                0x000000009d000208                . = ALIGN (0x4)
                0x0000000000000248                __vector_offset_66 = DEFINED (__vector_dispatch_66)?(. - _ebase_address):__vector_offset_default
 *(.vector_66)
                0x000000009d000208                . = ALIGN (0x4)
                0x0000000000000248                __vector_offset_67 = DEFINED (__vector_dispatch_67)?(. - _ebase_address):__vector_offset_default
 *(.vector_67)
                0x000000009d000208                . = ALIGN (0x4)
                0x0000000000000248                __vector_offset_68 = DEFINED (__vector_dispatch_68)?(. - _ebase_address):__vector_offset_default
 *(.vector_68)
                0x000000009d000208                . = ALIGN (0x4)
                0x0000000000000248                __vector_offset_69 = DEFINED (__vector_dispatch_69)?(. - _ebase_address):__vector_offset_default
 *(.vector_69)
                0x000000009d000208                . = ALIGN (0x4)
                0x0000000000000248                __vector_offset_70 = DEFINED (__vector_dispatch_70)?(. - _ebase_address):__vector_offset_default
 *(.vector_70)
                0x000000009d000208                . = ALIGN (0x4)
                0x0000000000000248                __vector_offset_71 = DEFINED (__vector_dispatch_71)?(. - _ebase_address):__vector_offset_default
 *(.vector_71)
                0x000000009d000208                . = ALIGN (0x4)
                0x0000000000000248                __vector_offset_72 = DEFINED (__vector_dispatch_72)?(. - _ebase_address):__vector_offset_default
 *(.vector_72)
                0x000000009d000208                . = ALIGN (0x4)
                0x0000000000000248                __vector_offset_73 = DEFINED (__vector_dispatch_73)?(. - _ebase_address):__vector_offset_default
 *(.vector_73)
                0x000000009d000208                . = ALIGN (0x4)
                0x0000000000000248                __vector_offset_74 = DEFINED (__vector_dispatch_74)?(. - _ebase_address):__vector_offset_default
 *(.vector_74)
                0x000000009d000208                . = ALIGN (0x4)
                0x0000000000000248                __vector_offset_75 = DEFINED (__vector_dispatch_75)?(. - _ebase_address):__vector_offset_default
 *(.vector_75)
                0x000000009d000208                . = ALIGN (0x4)
                0x0000000000000248                __vector_offset_76 = DEFINED (__vector_dispatch_76)?(. - _ebase_address):__vector_offset_default
 *(.vector_76)
                0x000000009d000208                . = ALIGN (0x4)
                0x0000000000000248                __vector_offset_77 = DEFINED (__vector_dispatch_77)?(. - _ebase_address):__vector_offset_default
 *(.vector_77)
                0x000000009d000208                . = ALIGN (0x4)
                0x0000000000000248                __vector_offset_78 = DEFINED (__vector_dispatch_78)?(. - _ebase_address):__vector_offset_default
 *(.vector_78)
                0x000000009d000208                . = ALIGN (0x4)
                0x0000000000000248                __vector_offset_79 = DEFINED (__vector_dispatch_79)?(. - _ebase_address):__vector_offset_default
 *(.vector_79)
                0x000000009d000208                . = ALIGN (0x4)
                0x0000000000000248                __vector_offset_80 = DEFINED (__vector_dispatch_80)?(. - _ebase_address):__vector_offset_default
 *(.vector_80)
                0x000000009d000208                . = ALIGN (0x4)
                0x0000000000000248                __vector_offset_81 = DEFINED (__vector_dispatch_81)?(. - _ebase_address):__vector_offset_default
 *(.vector_81)
                0x000000009d000208                . = ALIGN (0x4)
                0x0000000000000248                __vector_offset_82 = DEFINED (__vector_dispatch_82)?(. - _ebase_address):__vector_offset_default
 *(.vector_82)
                0x000000009d000208                . = ALIGN (0x4)
                0x0000000000000248                __vector_offset_83 = DEFINED (__vector_dispatch_83)?(. - _ebase_address):__vector_offset_default
 *(.vector_83)
                0x000000009d000208                . = ALIGN (0x4)
                0x0000000000000248                __vector_offset_84 = DEFINED (__vector_dispatch_84)?(. - _ebase_address):__vector_offset_default
 *(.vector_84)
                0x000000009d000208                . = ALIGN (0x4)
                0x0000000000000248                __vector_offset_85 = DEFINED (__vector_dispatch_85)?(. - _ebase_address):__vector_offset_default
 *(.vector_85)
                0x000000009d000208                . = ALIGN (0x4)
                0x0000000000000248                __vector_offset_86 = DEFINED (__vector_dispatch_86)?(. - _ebase_address):__vector_offset_default
 *(.vector_86)
                0x000000009d000208                . = ALIGN (0x4)
                0x0000000000000248                __vector_offset_87 = DEFINED (__vector_dispatch_87)?(. - _ebase_address):__vector_offset_default
 *(.vector_87)
                0x000000009d000208                . = ALIGN (0x4)
                0x0000000000000248                __vector_offset_88 = DEFINED (__vector_dispatch_88)?(. - _ebase_address):__vector_offset_default
 *(.vector_88)
                0x000000009d000208                . = ALIGN (0x4)
                0x0000000000000248                __vector_offset_89 = DEFINED (__vector_dispatch_89)?(. - _ebase_address):__vector_offset_default
 *(.vector_89)
                0x000000009d000208                . = ALIGN (0x4)
                0x0000000000000248                __vector_offset_90 = DEFINED (__vector_dispatch_90)?(. - _ebase_address):__vector_offset_default
 *(.vector_90)
                0x000000009d000208                . = ALIGN (0x4)
                0x0000000000000248                __vector_offset_91 = DEFINED (__vector_dispatch_91)?(. - _ebase_address):__vector_offset_default
 *(.vector_91)
                0x000000009d000208                . = ALIGN (0x4)
                0x0000000000000248                __vector_offset_92 = DEFINED (__vector_dispatch_92)?(. - _ebase_address):__vector_offset_default
 *(.vector_92)
                0x000000009d000208                . = ALIGN (0x4)
                0x0000000000000248                __vector_offset_93 = DEFINED (__vector_dispatch_93)?(. - _ebase_address):__vector_offset_default
 *(.vector_93)
                0x000000009d000208                . = ALIGN (0x4)
                0x0000000000000248                __vector_offset_94 = DEFINED (__vector_dispatch_94)?(. - _ebase_address):__vector_offset_default
 *(.vector_94)
                0x000000009d000208                . = ALIGN (0x4)
                0x0000000000000248                __vector_offset_95 = DEFINED (__vector_dispatch_95)?(. - _ebase_address):__vector_offset_default
 *(.vector_95)
                0x000000009d000208                . = ALIGN (0x4)
                0x0000000000000248                __vector_offset_96 = DEFINED (__vector_dispatch_96)?(. - _ebase_address):__vector_offset_default
 *(.vector_96)
                0x000000009d000208                . = ALIGN (0x4)
                0x0000000000000248                __vector_offset_97 = DEFINED (__vector_dispatch_97)?(. - _ebase_address):__vector_offset_default
 *(.vector_97)
                0x000000009d000208                . = ALIGN (0x4)
                0x0000000000000248                __vector_offset_98 = DEFINED (__vector_dispatch_98)?(. - _ebase_address):__vector_offset_default
 *(.vector_98)
                0x000000009d000208                . = ALIGN (0x4)
                0x0000000000000248                __vector_offset_99 = DEFINED (__vector_dispatch_99)?(. - _ebase_address):__vector_offset_default
 *(.vector_99)
                0x000000009d000208                . = ALIGN (0x4)
                0x0000000000000248                __vector_offset_100 = DEFINED (__vector_dispatch_100)?(. - _ebase_address):__vector_offset_default
 *(.vector_100)
                0x000000009d000208                . = ALIGN (0x4)
                0x0000000000000248                __vector_offset_101 = DEFINED (__vector_dispatch_101)?(. - _ebase_address):__vector_offset_default
 *(.vector_101)
                0x000000009d000208                . = ALIGN (0x4)
                0x0000000000000248                __vector_offset_102 = DEFINED (__vector_dispatch_102)?(. - _ebase_address):__vector_offset_default
 *(.vector_102)
                0x000000009d000208                . = ALIGN (0x4)
                0x0000000000000248                __vector_offset_103 = DEFINED (__vector_dispatch_103)?(. - _ebase_address):__vector_offset_default
 *(.vector_103)
                0x000000009d000208                . = ALIGN (0x4)
                0x0000000000000248                __vector_offset_104 = DEFINED (__vector_dispatch_104)?(. - _ebase_address):__vector_offset_default
 *(.vector_104)
                0x000000009d000208                . = ALIGN (0x4)
                0x0000000000000248                __vector_offset_105 = DEFINED (__vector_dispatch_105)?(. - _ebase_address):__vector_offset_default
 *(.vector_105)
                0x000000009d000208                . = ALIGN (0x4)
                0x0000000000000248                __vector_offset_106 = DEFINED (__vector_dispatch_106)?(. - _ebase_address):__vector_offset_default
 *(.vector_106)
                0x000000009d000208                . = ALIGN (0x4)
                0x0000000000000248                __vector_offset_107 = DEFINED (__vector_dispatch_107)?(. - _ebase_address):__vector_offset_default
 *(.vector_107)
                0x000000009d000208                . = ALIGN (0x4)
                0x0000000000000248                __vector_offset_108 = DEFINED (__vector_dispatch_108)?(. - _ebase_address):__vector_offset_default
 *(.vector_108)
                0x000000009d000208                . = ALIGN (0x4)
                0x0000000000000248                __vector_offset_109 = DEFINED (__vector_dispatch_109)?(. - _ebase_address):__vector_offset_default
 *(.vector_109)
                0x000000009d000208                . = ALIGN (0x4)
                0x0000000000000248                __vector_offset_110 = DEFINED (__vector_dispatch_110)?(. - _ebase_address):__vector_offset_default
 *(.vector_110)
                0x000000009d000208                . = ALIGN (0x4)
                0x0000000000000248                __vector_offset_111 = DEFINED (__vector_dispatch_111)?(. - _ebase_address):__vector_offset_default
 *(.vector_111)
                0x000000009d000208                . = ALIGN (0x4)
                0x0000000000000248                __vector_offset_112 = DEFINED (__vector_dispatch_112)?(. - _ebase_address):__vector_offset_default
 *(.vector_112)
                0x000000009d000208                . = ALIGN (0x4)
                0x0000000000000248                __vector_offset_113 = DEFINED (__vector_dispatch_113)?(. - _ebase_address):__vector_offset_default
 *(.vector_113)
                0x000000009d000208                . = ALIGN (0x4)
                0x0000000000000248                __vector_offset_114 = DEFINED (__vector_dispatch_114)?(. - _ebase_address):__vector_offset_default
 *(.vector_114)
                0x000000009d000208                . = ALIGN (0x4)
                0x0000000000000248                __vector_offset_115 = DEFINED (__vector_dispatch_115)?(. - _ebase_address):__vector_offset_default
 *(.vector_115)
                0x000000009d000208                . = ALIGN (0x4)
                0x0000000000000248                __vector_offset_116 = DEFINED (__vector_dispatch_116)?(. - _ebase_address):__vector_offset_default
 *(.vector_116)
                0x000000009d000208                . = ALIGN (0x4)
                0x0000000000000248                __vector_offset_117 = DEFINED (__vector_dispatch_117)?(. - _ebase_address):__vector_offset_default
 *(.vector_117)
                0x000000009d000208                . = ALIGN (0x4)
                0x0000000000000248                __vector_offset_118 = DEFINED (__vector_dispatch_118)?(. - _ebase_address):__vector_offset_default
 *(.vector_118)
                0x000000009d000208                . = ALIGN (0x4)
                0x0000000000000248                __vector_offset_119 = DEFINED (__vector_dispatch_119)?(. - _ebase_address):__vector_offset_default
 *(.vector_119)
                0x000000009d000208                . = ALIGN (0x4)
                0x0000000000000248                __vector_offset_120 = DEFINED (__vector_dispatch_120)?(. - _ebase_address):__vector_offset_default
 *(.vector_120)
                0x000000009d000208                . = ALIGN (0x4)
                0x0000000000000248                __vector_offset_121 = DEFINED (__vector_dispatch_121)?(. - _ebase_address):__vector_offset_default
 *(.vector_121)
                0x000000009d000208                . = ALIGN (0x4)
                0x0000000000000248                __vector_offset_122 = DEFINED (__vector_dispatch_122)?(. - _ebase_address):__vector_offset_default
 *(.vector_122)
                0x000000009d000208                . = ALIGN (0x4)
                0x0000000000000248                __vector_offset_123 = DEFINED (__vector_dispatch_123)?(. - _ebase_address):__vector_offset_default
 *(.vector_123)
                0x000000009d000208                . = ALIGN (0x4)
                0x0000000000000248                __vector_offset_124 = DEFINED (__vector_dispatch_124)?(. - _ebase_address):__vector_offset_default
 *(.vector_124)
                0x000000009d000208                . = ALIGN (0x4)
                0x0000000000000248                __vector_offset_125 = DEFINED (__vector_dispatch_125)?(. - _ebase_address):__vector_offset_default
 *(.vector_125)
                0x000000009d000208                . = ALIGN (0x4)
                0x0000000000000248                __vector_offset_126 = DEFINED (__vector_dispatch_126)?(. - _ebase_address):__vector_offset_default
 *(.vector_126)
                0x000000009d000208                . = ALIGN (0x4)
                0x0000000000000248                __vector_offset_127 = DEFINED (__vector_dispatch_127)?(. - _ebase_address):__vector_offset_default
 *(.vector_127)
                0x000000009d000208                . = ALIGN (0x4)
                0x0000000000000248                __vector_offset_128 = DEFINED (__vector_dispatch_128)?(. - _ebase_address):__vector_offset_default
 *(.vector_128)
                0x000000009d000208                . = ALIGN (0x4)
                0x0000000000000248                __vector_offset_129 = DEFINED (__vector_dispatch_129)?(. - _ebase_address):__vector_offset_default
 *(.vector_129)
                0x000000009d000208                . = ALIGN (0x4)
                0x0000000000000248                __vector_offset_130 = DEFINED (__vector_dispatch_130)?(. - _ebase_address):__vector_offset_default
 *(.vector_130)
                0x000000009d000208                . = ALIGN (0x4)
                0x0000000000000248                __vector_offset_131 = DEFINED (__vector_dispatch_131)?(. - _ebase_address):__vector_offset_default
 *(.vector_131)
                0x000000009d000208                . = ALIGN (0x4)
                0x0000000000000248                __vector_offset_132 = DEFINED (__vector_dispatch_132)?(. - _ebase_address):__vector_offset_default
 *(.vector_132)
                0x000000009d000208                . = ALIGN (0x4)
                0x0000000000000248                __vector_offset_133 = DEFINED (__vector_dispatch_133)?(. - _ebase_address):__vector_offset_default
 *(.vector_133)
                0x000000009d000208                . = ALIGN (0x4)
                0x0000000000000208                __vector_offset_134 = DEFINED (__vector_dispatch_134)?(. - _ebase_address):__vector_offset_default
 *(.vector_134)
 .vector_134    0x000000009d000208        0x8 build/default/debug/_ext/1171490990/interrupts.o
                0x000000009d000208                __vector_dispatch_134
                0x000000009d000210                . = ALIGN (0x4)
                0x0000000000000210                __vector_offset_135 = DEFINED (__vector_dispatch_135)?(. - _ebase_address):__vector_offset_default
 *(.vector_135)
 .vector_135    0x000000009d000210        0x8 build/default/debug/_ext/1171490990/interrupts.o
                0x000000009d000210                __vector_dispatch_135
                0x000000009d000218                . = ALIGN (0x4)
                0x0000000000000248                __vector_offset_136 = DEFINED (__vector_dispatch_136)?(. - _ebase_address):__vector_offset_default
 *(.vector_136)
                0x000000009d000218                . = ALIGN (0x4)
                0x0000000000000248                __vector_offset_137 = DEFINED (__vector_dispatch_137)?(. - _ebase_address):__vector_offset_default
 *(.vector_137)
                0x000000009d000218                . = ALIGN (0x4)
                0x0000000000000248                __vector_offset_138 = DEFINED (__vector_dispatch_138)?(. - _ebase_address):__vector_offset_default
 *(.vector_138)
                0x000000009d000218                . = ALIGN (0x4)
                0x0000000000000248                __vector_offset_139 = DEFINED (__vector_dispatch_139)?(. - _ebase_address):__vector_offset_default
 *(.vector_139)
                0x000000009d000218                . = ALIGN (0x4)
                0x0000000000000248                __vector_offset_140 = DEFINED (__vector_dispatch_140)?(. - _ebase_address):__vector_offset_default
 *(.vector_140)
                0x000000009d000218                . = ALIGN (0x4)
                0x0000000000000248                __vector_offset_141 = DEFINED (__vector_dispatch_141)?(. - _ebase_address):__vector_offset_default
 *(.vector_141)
                0x000000009d000218                . = ALIGN (0x4)
                0x0000000000000248                __vector_offset_142 = DEFINED (__vector_dispatch_142)?(. - _ebase_address):__vector_offset_default
 *(.vector_142)
                0x000000009d000218                . = ALIGN (0x4)
                0x0000000000000248                __vector_offset_143 = DEFINED (__vector_dispatch_143)?(. - _ebase_address):__vector_offset_default
 *(.vector_143)
                0x000000009d000218                . = ALIGN (0x4)
                0x0000000000000248                __vector_offset_144 = DEFINED (__vector_dispatch_144)?(. - _ebase_address):__vector_offset_default
 *(.vector_144)
                0x000000009d000218                . = ALIGN (0x4)
                0x0000000000000248                __vector_offset_145 = DEFINED (__vector_dispatch_145)?(. - _ebase_address):__vector_offset_default
 *(.vector_145)
                0x000000009d000218                . = ALIGN (0x4)
                0x0000000000000248                __vector_offset_146 = DEFINED (__vector_dispatch_146)?(. - _ebase_address):__vector_offset_default
 *(.vector_146)
                0x000000009d000218                . = ALIGN (0x4)
                0x0000000000000248                __vector_offset_147 = DEFINED (__vector_dispatch_147)?(. - _ebase_address):__vector_offset_default
 *(.vector_147)
                0x000000009d000218                . = ALIGN (0x4)
                0x0000000000000248                __vector_offset_148 = DEFINED (__vector_dispatch_148)?(. - _ebase_address):__vector_offset_default
 *(.vector_148)
                0x000000009d000218                . = ALIGN (0x4)
                0x0000000000000248                __vector_offset_149 = DEFINED (__vector_dispatch_149)?(. - _ebase_address):__vector_offset_default
 *(.vector_149)
                0x000000009d000218                . = ALIGN (0x4)
                0x0000000000000248                __vector_offset_150 = DEFINED (__vector_dispatch_150)?(. - _ebase_address):__vector_offset_default
 *(.vector_150)
                0x000000009d000218                . = ALIGN (0x4)
                0x0000000000000248                __vector_offset_151 = DEFINED (__vector_dispatch_151)?(. - _ebase_address):__vector_offset_default
 *(.vector_151)
                0x000000009d000218                . = ALIGN (0x4)
                0x0000000000000248                __vector_offset_152 = DEFINED (__vector_dispatch_152)?(. - _ebase_address):__vector_offset_default
 *(.vector_152)
                0x000000009d000218                . = ALIGN (0x4)
                0x0000000000000248                __vector_offset_153 = DEFINED (__vector_dispatch_153)?(. - _ebase_address):__vector_offset_default
 *(.vector_153)
                0x000000009d000218                . = ALIGN (0x4)
                0x0000000000000248                __vector_offset_154 = DEFINED (__vector_dispatch_154)?(. - _ebase_address):__vector_offset_default
 *(.vector_154)
                0x000000009d000218                . = ALIGN (0x4)
                0x0000000000000248                __vector_offset_155 = DEFINED (__vector_dispatch_155)?(. - _ebase_address):__vector_offset_default
 *(.vector_155)
                0x000000009d000218                . = ALIGN (0x4)
                0x0000000000000248                __vector_offset_156 = DEFINED (__vector_dispatch_156)?(. - _ebase_address):__vector_offset_default
 *(.vector_156)
                0x000000009d000218                . = ALIGN (0x4)
                0x0000000000000218                __vector_offset_157 = DEFINED (__vector_dispatch_157)?(. - _ebase_address):__vector_offset_default
 *(.vector_157)
 .vector_157    0x000000009d000218        0x8 build/default/debug/_ext/1171490990/interrupts.o
                0x000000009d000218                __vector_dispatch_157
                0x000000009d000220                . = ALIGN (0x4)
                0x0000000000000220                __vector_offset_158 = DEFINED (__vector_dispatch_158)?(. - _ebase_address):__vector_offset_default
 *(.vector_158)
 .vector_158    0x000000009d000220        0x8 build/default/debug/_ext/1171490990/interrupts.o
                0x000000009d000220                __vector_dispatch_158
                0x000000009d000228                . = ALIGN (0x4)
                0x0000000000000228                __vector_offset_159 = DEFINED (__vector_dispatch_159)?(. - _ebase_address):__vector_offset_default
 *(.vector_159)
 .vector_159    0x000000009d000228        0x8 build/default/debug/_ext/1171490990/interrupts.o
                0x000000009d000228                __vector_dispatch_159
                0x000000009d000230                . = ALIGN (0x4)
                0x0000000000000248                __vector_offset_160 = DEFINED (__vector_dispatch_160)?(. - _ebase_address):__vector_offset_default
 *(.vector_160)
                0x000000009d000230                . = ALIGN (0x4)
                0x0000000000000248                __vector_offset_161 = DEFINED (__vector_dispatch_161)?(. - _ebase_address):__vector_offset_default
 *(.vector_161)
                0x000000009d000230                . = ALIGN (0x4)
                0x0000000000000248                __vector_offset_162 = DEFINED (__vector_dispatch_162)?(. - _ebase_address):__vector_offset_default
 *(.vector_162)
                0x000000009d000230                . = ALIGN (0x4)
                0x0000000000000248                __vector_offset_163 = DEFINED (__vector_dispatch_163)?(. - _ebase_address):__vector_offset_default
 *(.vector_163)
                0x000000009d000230                . = ALIGN (0x4)
                0x0000000000000248                __vector_offset_164 = DEFINED (__vector_dispatch_164)?(. - _ebase_address):__vector_offset_default
 *(.vector_164)
                0x000000009d000230                . = ALIGN (0x4)
                0x0000000000000248                __vector_offset_165 = DEFINED (__vector_dispatch_165)?(. - _ebase_address):__vector_offset_default
 *(.vector_165)
                0x000000009d000230                . = ALIGN (0x4)
                0x0000000000000230                __vector_offset_166 = DEFINED (__vector_dispatch_166)?(. - _ebase_address):__vector_offset_default
 *(.vector_166)
 .vector_166    0x000000009d000230        0x8 build/default/debug/_ext/1171490990/interrupts.o
                0x000000009d000230                __vector_dispatch_166
                0x000000009d000238                . = ALIGN (0x4)
                0x0000000000000248                __vector_offset_167 = DEFINED (__vector_dispatch_167)?(. - _ebase_address):__vector_offset_default
 *(.vector_167)
                0x000000009d000238                . = ALIGN (0x4)
                0x0000000000000248                __vector_offset_168 = DEFINED (__vector_dispatch_168)?(. - _ebase_address):__vector_offset_default
 *(.vector_168)
                0x000000009d000238                . = ALIGN (0x4)
                0x0000000000000248                __vector_offset_169 = DEFINED (__vector_dispatch_169)?(. - _ebase_address):__vector_offset_default
 *(.vector_169)
                0x000000009d000238                . = ALIGN (0x4)
                0x0000000000000248                __vector_offset_170 = DEFINED (__vector_dispatch_170)?(. - _ebase_address):__vector_offset_default
 *(.vector_170)
                0x000000009d000238                . = ALIGN (0x4)
                0x0000000000000248                __vector_offset_171 = DEFINED (__vector_dispatch_171)?(. - _ebase_address):__vector_offset_default
 *(.vector_171)
                0x000000009d000238                . = ALIGN (0x4)
                0x0000000000000248                __vector_offset_172 = DEFINED (__vector_dispatch_172)?(. - _ebase_address):__vector_offset_default
 *(.vector_172)
                0x000000009d000238                . = ALIGN (0x4)
                0x0000000000000248                __vector_offset_173 = DEFINED (__vector_dispatch_173)?(. - _ebase_address):__vector_offset_default
 *(.vector_173)
                0x000000009d000238                . = ALIGN (0x4)
                0x0000000000000248                __vector_offset_174 = DEFINED (__vector_dispatch_174)?(. - _ebase_address):__vector_offset_default
 *(.vector_174)
                0x000000009d000238                . = ALIGN (0x4)
                0x0000000000000248                __vector_offset_175 = DEFINED (__vector_dispatch_175)?(. - _ebase_address):__vector_offset_default
 *(.vector_175)
                0x000000009d000238                . = ALIGN (0x4)
                0x0000000000000248                __vector_offset_176 = DEFINED (__vector_dispatch_176)?(. - _ebase_address):__vector_offset_default
 *(.vector_176)
                0x000000009d000238                . = ALIGN (0x4)
                0x0000000000000248                __vector_offset_177 = DEFINED (__vector_dispatch_177)?(. - _ebase_address):__vector_offset_default
 *(.vector_177)
                0x000000009d000238                . = ALIGN (0x4)
                0x0000000000000248                __vector_offset_178 = DEFINED (__vector_dispatch_178)?(. - _ebase_address):__vector_offset_default
 *(.vector_178)
                0x000000009d000238                . = ALIGN (0x4)
                0x0000000000000248                __vector_offset_179 = DEFINED (__vector_dispatch_179)?(. - _ebase_address):__vector_offset_default
 *(.vector_179)
                0x000000009d000238                . = ALIGN (0x4)
                0x0000000000000248                __vector_offset_180 = DEFINED (__vector_dispatch_180)?(. - _ebase_address):__vector_offset_default
 *(.vector_180)
                0x000000009d000238                . = ALIGN (0x4)
                0x0000000000000248                __vector_offset_181 = DEFINED (__vector_dispatch_181)?(. - _ebase_address):__vector_offset_default
 *(.vector_181)
                0x000000009d000238                . = ALIGN (0x4)
                0x0000000000000238                __vector_offset_182 = DEFINED (__vector_dispatch_182)?(. - _ebase_address):__vector_offset_default
 *(.vector_182)
 .vector_182    0x000000009d000238        0x8 build/default/debug/_ext/1171490990/interrupts.o
                0x000000009d000238                __vector_dispatch_182
                0x000000009d000240                . = ALIGN (0x4)
                0x0000000000000248                __vector_offset_183 = DEFINED (__vector_dispatch_183)?(. - _ebase_address):__vector_offset_default
 *(.vector_183)
                0x000000009d000240                . = ALIGN (0x4)
                0x0000000000000240                __vector_offset_184 = DEFINED (__vector_dispatch_184)?(. - _ebase_address):__vector_offset_default
 *(.vector_184)
 .vector_184    0x000000009d000240        0x8 build/default/debug/_ext/1171490990/interrupts.o
                0x000000009d000240                __vector_dispatch_184
                0x000000009d000248                . = ALIGN (0x4)
                0x0000000000000248                __vector_offset_185 = DEFINED (__vector_dispatch_185)?(. - _ebase_address):__vector_offset_default
 *(.vector_185)
                0x000000009d000248                . = ALIGN (0x4)
                0x0000000000000248                __vector_offset_186 = DEFINED (__vector_dispatch_186)?(. - _ebase_address):__vector_offset_default
 *(.vector_186)
                0x000000009d000248                . = ALIGN (0x4)
                0x0000000000000248                __vector_offset_187 = DEFINED (__vector_dispatch_187)?(. - _ebase_address):__vector_offset_default
 *(.vector_187)
                0x000000009d000248                . = ALIGN (0x4)
                0x0000000000000248                __vector_offset_188 = DEFINED (__vector_dispatch_188)?(. - _ebase_address):__vector_offset_default
 *(.vector_188)
                0x000000009d000248                . = ALIGN (0x4)
                0x0000000000000248                __vector_offset_189 = DEFINED (__vector_dispatch_189)?(. - _ebase_address):__vector_offset_default
 *(.vector_189)
                0x000000009d000248                . = ALIGN (0x4)
                0x0000000000000248                __vector_offset_190 = DEFINED (__vector_dispatch_190)?(. - _ebase_address):__vector_offset_default
 *(.vector_190)
                0x000000009d000248                . = ALIGN (0x4)
                0x0000000000000248                __vector_offset_191 = DEFINED (__vector_dispatch_191)?(. - _ebase_address):__vector_offset_default
 *(.vector_191)
                0x000000009d000248                . = ALIGN (0x4)
                0x0000000000000248                __vector_offset_192 = DEFINED (__vector_dispatch_192)?(. - _ebase_address):__vector_offset_default
 *(.vector_192)
                0x000000009d000248                . = ALIGN (0x4)
                0x0000000000000248                __vector_offset_193 = DEFINED (__vector_dispatch_193)?(. - _ebase_address):__vector_offset_default
 *(.vector_193)
                0x000000009d000248                . = ALIGN (0x4)
                0x0000000000000248                __vector_offset_194 = DEFINED (__vector_dispatch_194)?(. - _ebase_address):__vector_offset_default
 *(.vector_194)
                0x000000009d000248                . = ALIGN (0x4)
                0x0000000000000248                __vector_offset_195 = DEFINED (__vector_dispatch_195)?(. - _ebase_address):__vector_offset_default
 *(.vector_195)
                0x000000009d000248                . = ALIGN (0x4)
                0x0000000000000248                __vector_offset_196 = DEFINED (__vector_dispatch_196)?(. - _ebase_address):__vector_offset_default
 *(.vector_196)
                0x000000009d000248                . = ALIGN (0x4)
                0x0000000000000248                __vector_offset_197 = DEFINED (__vector_dispatch_197)?(. - _ebase_address):__vector_offset_default
 *(.vector_197)
                0x000000009d000248                . = ALIGN (0x4)
                0x0000000000000248                __vector_offset_198 = DEFINED (__vector_dispatch_198)?(. - _ebase_address):__vector_offset_default
 *(.vector_198)
                0x000000009d000248                . = ALIGN (0x4)
                0x0000000000000248                __vector_offset_199 = DEFINED (__vector_dispatch_199)?(. - _ebase_address):__vector_offset_default
 *(.vector_199)
                0x000000009d000248                . = ALIGN (0x4)
                0x0000000000000248                __vector_offset_200 = DEFINED (__vector_dispatch_200)?(. - _ebase_address):__vector_offset_default
 *(.vector_200)
                0x000000009d000248                . = ALIGN (0x4)
                0x0000000000000248                __vector_offset_201 = DEFINED (__vector_dispatch_201)?(. - _ebase_address):__vector_offset_default
 *(.vector_201)
                0x000000009d000248                . = ALIGN (0x4)
                0x0000000000000248                __vector_offset_202 = DEFINED (__vector_dispatch_202)?(. - _ebase_address):__vector_offset_default
 *(.vector_202)
                0x000000009d000248                . = ALIGN (0x4)
                0x0000000000000248                __vector_offset_203 = DEFINED (__vector_dispatch_203)?(. - _ebase_address):__vector_offset_default
 *(.vector_203)
                0x000000009d000248                . = ALIGN (0x4)
                0x0000000000000248                __vector_offset_204 = DEFINED (__vector_dispatch_204)?(. - _ebase_address):__vector_offset_default
 *(.vector_204)
                0x000000009d000248                . = ALIGN (0x4)
                0x0000000000000248                __vector_offset_205 = DEFINED (__vector_dispatch_205)?(. - _ebase_address):__vector_offset_default
 *(.vector_205)
                0x000000009d000248                . = ALIGN (0x4)
                0x0000000000000248                __vector_offset_206 = DEFINED (__vector_dispatch_206)?(. - _ebase_address):__vector_offset_default
 *(.vector_206)
                0x000000009d000248                . = ALIGN (0x4)
                0x0000000000000248                __vector_offset_207 = DEFINED (__vector_dispatch_207)?(. - _ebase_address):__vector_offset_default
 *(.vector_207)
                0x000000009d000248                . = ALIGN (0x4)
                0x0000000000000248                __vector_offset_208 = DEFINED (__vector_dispatch_208)?(. - _ebase_address):__vector_offset_default
 *(.vector_208)
                0x000000009d000248                . = ALIGN (0x4)
                0x0000000000000248                __vector_offset_209 = DEFINED (__vector_dispatch_209)?(. - _ebase_address):__vector_offset_default
 *(.vector_209)
                0x000000009d000248                . = ALIGN (0x4)
                0x0000000000000248                __vector_offset_210 = DEFINED (__vector_dispatch_210)?(. - _ebase_address):__vector_offset_default
 *(.vector_210)
                0x000000009d000248                . = ALIGN (0x4)
                0x0000000000000248                __vector_offset_211 = DEFINED (__vector_dispatch_211)?(. - _ebase_address):__vector_offset_default
 *(.vector_211)
                0x000000009d000248                . = ALIGN (0x4)
                0x0000000000000248                __vector_offset_212 = DEFINED (__vector_dispatch_212)?(. - _ebase_address):__vector_offset_default
 *(.vector_212)
                0x000000009d000248                . = ALIGN (0x4)
                0x0000000000000248                __vector_offset_213 = DEFINED (__vector_dispatch_213)?(. - _ebase_address):__vector_offset_default
 *(.vector_213)
                0x000000009d000248                . = ALIGN (0x4)
                0x0000000000000248                __vector_offset_214 = DEFINED (__vector_dispatch_214)?(. - _ebase_address):__vector_offset_default
 *(.vector_214)
                0x000000009d000248                . = ALIGN (0x4)
                0x0000000000000248                __vector_offset_215 = DEFINED (__vector_dispatch_215)?(. - _ebase_address):__vector_offset_default
 *(.vector_215)
                0x000000009d000248                . = ALIGN (0x4)
                0x0000000000000248                __vector_offset_216 = DEFINED (__vector_dispatch_216)?(. - _ebase_address):__vector_offset_default
 *(.vector_216)
                0x000000009d000248                . = ALIGN (0x4)
                0x0000000000000248                __vector_offset_217 = DEFINED (__vector_dispatch_217)?(. - _ebase_address):__vector_offset_default
 *(.vector_217)
                0x000000009d000248                . = ALIGN (0x4)
                0x0000000000000248                __vector_offset_218 = DEFINED (__vector_dispatch_218)?(. - _ebase_address):__vector_offset_default
 *(.vector_218)
                0x000000009d000248                . = ALIGN (0x4)
                0x0000000000000248                __vector_offset_219 = DEFINED (__vector_dispatch_219)?(. - _ebase_address):__vector_offset_default
 *(.vector_219)
                0x000000009d000248                . = ALIGN (0x4)
                0x0000000000000248                __vector_offset_220 = DEFINED (__vector_dispatch_220)?(. - _ebase_address):__vector_offset_default
 *(.vector_220)
                0x000000009d000248                . = ALIGN (0x4)
                0x0000000000000248                __vector_offset_221 = DEFINED (__vector_dispatch_221)?(. - _ebase_address):__vector_offset_default
 *(.vector_221)
                0x000000009d000248                . = ALIGN (0x4)
                0x0000000000000248                __vector_offset_222 = DEFINED (__vector_dispatch_222)?(. - _ebase_address):__vector_offset_default
 *(.vector_222)
                0x000000009d000248                . = ALIGN (0x4)
                0x0000000000000248                __vector_offset_223 = DEFINED (__vector_dispatch_223)?(. - _ebase_address):__vector_offset_default
 *(.vector_223)
                0x000000009d000248                . = ALIGN (0x4)
                0x0000000000000248                __vector_offset_224 = DEFINED (__vector_dispatch_224)?(. - _ebase_address):__vector_offset_default
 *(.vector_224)
                0x000000009d000248                . = ALIGN (0x4)
                0x0000000000000248                __vector_offset_225 = DEFINED (__vector_dispatch_225)?(. - _ebase_address):__vector_offset_default
 *(.vector_225)
                0x000000009d000248                . = ALIGN (0x4)
                0x0000000000000248                __vector_offset_226 = DEFINED (__vector_dispatch_226)?(. - _ebase_address):__vector_offset_default
 *(.vector_226)
                0x000000009d000248                . = ALIGN (0x4)
                0x0000000000000248                __vector_offset_227 = DEFINED (__vector_dispatch_227)?(. - _ebase_address):__vector_offset_default
 *(.vector_227)
                0x000000009d000248                . = ALIGN (0x4)
                0x0000000000000248                __vector_offset_228 = DEFINED (__vector_dispatch_228)?(. - _ebase_address):__vector_offset_default
 *(.vector_228)
                0x000000009d000248                . = ALIGN (0x4)
                0x0000000000000248                __vector_offset_229 = DEFINED (__vector_dispatch_229)?(. - _ebase_address):__vector_offset_default
 *(.vector_229)
                0x000000009d000248                . = ALIGN (0x4)
                0x0000000000000248                __vector_offset_230 = DEFINED (__vector_dispatch_230)?(. - _ebase_address):__vector_offset_default
 *(.vector_230)
                0x000000009d000248                . = ALIGN (0x4)
                0x0000000000000248                __vector_offset_231 = DEFINED (__vector_dispatch_231)?(. - _ebase_address):__vector_offset_default
 *(.vector_231)
                0x000000009d000248                . = ALIGN (0x4)
                0x0000000000000248                __vector_offset_232 = DEFINED (__vector_dispatch_232)?(. - _ebase_address):__vector_offset_default
 *(.vector_232)
                0x000000009d000248                . = ALIGN (0x4)
                0x0000000000000248                __vector_offset_233 = DEFINED (__vector_dispatch_233)?(. - _ebase_address):__vector_offset_default
 *(.vector_233)
                0x000000009d000248                . = ALIGN (0x4)
                0x0000000000000248                __vector_offset_234 = DEFINED (__vector_dispatch_234)?(. - _ebase_address):__vector_offset_default
 *(.vector_234)
                0x000000009d000248                . = ALIGN (0x4)
                0x0000000000000248                __vector_offset_235 = DEFINED (__vector_dispatch_235)?(. - _ebase_address):__vector_offset_default
 *(.vector_235)
                0x000000009d000248                . = ALIGN (0x4)
                0x0000000000000248                __vector_offset_236 = DEFINED (__vector_dispatch_236)?(. - _ebase_address):__vector_offset_default
 *(.vector_236)
                0x000000009d000248                . = ALIGN (0x4)
                0x0000000000000248                __vector_offset_237 = DEFINED (__vector_dispatch_237)?(. - _ebase_address):__vector_offset_default
 *(.vector_237)
                0x000000009d000248                . = ALIGN (0x4)
                0x0000000000000248                __vector_offset_238 = DEFINED (__vector_dispatch_238)?(. - _ebase_address):__vector_offset_default
 *(.vector_238)
                0x000000009d000248                . = ALIGN (0x4)
                0x0000000000000248                __vector_offset_239 = DEFINED (__vector_dispatch_239)?(. - _ebase_address):__vector_offset_default
 *(.vector_239)
                0x000000009d000248                . = ALIGN (0x4)
                0x0000000000000248                __vector_offset_240 = DEFINED (__vector_dispatch_240)?(. - _ebase_address):__vector_offset_default
 *(.vector_240)
                0x000000009d000248                . = ALIGN (0x4)
                0x0000000000000248                __vector_offset_241 = DEFINED (__vector_dispatch_241)?(. - _ebase_address):__vector_offset_default
 *(.vector_241)
                0x000000009d000248                . = ALIGN (0x4)
                0x0000000000000248                __vector_offset_242 = DEFINED (__vector_dispatch_242)?(. - _ebase_address):__vector_offset_default
 *(.vector_242)
                0x000000009d000248                . = ALIGN (0x4)
                0x0000000000000248                __vector_offset_243 = DEFINED (__vector_dispatch_243)?(. - _ebase_address):__vector_offset_default
 *(.vector_243)
                0x000000009d000248                . = ALIGN (0x4)
                0x0000000000000248                __vector_offset_244 = DEFINED (__vector_dispatch_244)?(. - _ebase_address):__vector_offset_default
 *(.vector_244)
                0x000000009d000248                . = ALIGN (0x4)
                0x0000000000000248                __vector_offset_245 = DEFINED (__vector_dispatch_245)?(. - _ebase_address):__vector_offset_default
 *(.vector_245)
                0x000000009d000248                . = ALIGN (0x4)
                0x0000000000000248                __vector_offset_246 = DEFINED (__vector_dispatch_246)?(. - _ebase_address):__vector_offset_default
 *(.vector_246)
                0x000000009d000248                . = ALIGN (0x4)
                0x0000000000000248                __vector_offset_247 = DEFINED (__vector_dispatch_247)?(. - _ebase_address):__vector_offset_default
 *(.vector_247)
                0x000000009d000248                . = ALIGN (0x4)
                0x0000000000000248                __vector_offset_248 = DEFINED (__vector_dispatch_248)?(. - _ebase_address):__vector_offset_default
 *(.vector_248)
                0x000000009d000248                . = ALIGN (0x4)
                0x0000000000000248                __vector_offset_249 = DEFINED (__vector_dispatch_249)?(. - _ebase_address):__vector_offset_default
 *(.vector_249)
                0x000000009d000248                . = ALIGN (0x4)
                0x0000000000000248                __vector_offset_250 = DEFINED (__vector_dispatch_250)?(. - _ebase_address):__vector_offset_default
 *(.vector_250)
                0x000000009d000248                . = ALIGN (0x4)
                0x0000000000000248                __vector_offset_251 = DEFINED (__vector_dispatch_251)?(. - _ebase_address):__vector_offset_default
 *(.vector_251)
                0x000000009d000248                . = ALIGN (0x4)
                0x0000000000000248                __vector_offset_252 = DEFINED (__vector_dispatch_252)?(. - _ebase_address):__vector_offset_default
 *(.vector_252)
                0x000000009d000248                . = ALIGN (0x4)
                0x0000000000000248                __vector_offset_253 = DEFINED (__vector_dispatch_253)?(. - _ebase_address):__vector_offset_default
 *(.vector_253)
                0x000000009d000248                . = ALIGN (0x4)
                0x0000000000000248                __vector_offset_254 = DEFINED (__vector_dispatch_254)?(. - _ebase_address):__vector_offset_default
 *(.vector_254)
                0x000000009d000248                . = ALIGN (0x4)
                0x0000000000000248                __vector_offset_255 = DEFINED (__vector_dispatch_255)?(. - _ebase_address):__vector_offset_default
 *(.vector_255)
                0x000000009d000248                . = ALIGN (0x4)
                0x0000000000000248                __vector_offset_default = (. - _ebase_address)
 *(.vector_default)
 .vector_default
                0x000000009d000248       0x48 c:/program files/microchip/xc32/v4.30/bin/bin/../../lib/gcc/pic32mx/8.3.1/../../../../pic32mx/lib/fpu64\libpic32.a(defaultinterrupt.o)
                0x000000009d000248                _DefaultInterrupt

.startup
 *(.startup)

.text           0x000000009d000290        0x0
 *(.stub .gnu.linkonce.t.*)
 *(.text.*personality*)
 *(.mips16.fn.*)
 *(.mips16.call.*)
 *(.gnu.warning)
                0x000000009d000290                . = ALIGN (0x4)

.init           0x000000009d000290        0x0
 *crti.o(.init)
 *crtbegin.o(.init)
 *(EXCLUDE_FILE(*crtn.o *crtend?.o *crtend.o) .init)
 *crtend.o(.init)
 *crtn.o(.init)
                0x000000009d000290                . = ALIGN (0x4)

.fini           0x000000009d000290        0x0
 *(.fini)
                0x000000009d000290                . = ALIGN (0x4)

.preinit_array  0x000000009d000290        0x0
                [!provide]                        PROVIDE (__preinit_array_start = .)
 *(.preinit_array)
                [!provide]                        PROVIDE (__preinit_array_end = .)
                0x000000009d000290                . = ALIGN (0x4)

.init_array     0x000000009d000290        0x0
                [!provide]                        PROVIDE (__init_array_start = .)
 *(SORT_BY_NAME(.init_array.*))
 *(.init_array)
                [!provide]                        PROVIDE (__init_array_end = .)
                0x000000009d000290                . = ALIGN (0x4)

.fini_array     0x000000009d000290        0x0
                0x000000009d000290                PROVIDE (__fini_array_start = .)
 *(SORT_BY_NAME(.fini_array.*))
 *(.fini_array)
                0x000000009d000290                PROVIDE (__fini_array_end = .)
                0x000000009d000290                . = ALIGN (0x4)

.ctors          0x000000009d000290        0x0
 *crtbegin.o(.ctors)
 *crtbegin?.o(.ctors)
 *(EXCLUDE_FILE(*crtend?.o *crtend.o) .ctors)
 *(SORT_BY_NAME(.ctors.*))
 *(.ctors)
                0x000000009d000290                . = ALIGN (0x4)

.dtors          0x000000009d000290        0x0
 *crtbegin.o(.dtors)
 *crtbegin?.o(.dtors)
 *(EXCLUDE_FILE(*crtend?.o *crtend.o) .dtors)
 *(SORT_BY_NAME(.dtors.*))
 *(.dtors)
                0x000000009d000290                . = ALIGN (0x4)

.rodata         0x000000009d000290        0x0
 *(.gnu.linkonce.r.*)
 *(.rodata1)
                0x000000009d000290                . = ALIGN (0x4)

.sdata2         0x000000009d000290        0x0
 *(.sdata2 .sdata2.* .gnu.linkonce.s2.*)
                0x000000009d000290                . = ALIGN (0x4)

.sbss2          0x000000009d000290        0x0
 *(.sbss2 .sbss2.* .gnu.linkonce.sb2.*)
                0x000000009d000290                . = ALIGN (0x4)

.eh_frame_hdr
 *(.eh_frame_hdr)
                0x000000009d000290                . = ALIGN (0x4)

.eh_frame
 *(.eh_frame)
                0x000000009d000290                . = ALIGN (0x4)

.gcc_except_table
 *(.gcc_except_table .gcc_except_table.*)
                0x000000009d000290                . = ALIGN (0x4)

.dbg_data       0x0000000080000380        0x0
                0x0000000080000380                . = (. + DEFINED (_DEBUGGER)?0x200:0x0)
                0x0000000080000380                . = (. + DEFINED (_DEBUGGER)?0x80:0x0)
                0x0000000080000380                . = (. + DEFINED (_DEBUGGER)?0x100:0x0)

.jcr            0x0000000080000380        0x0
 *(.jcr)
                0x0000000080000380                . = ALIGN (0x4)

.eh_frame
 *(.eh_frame)
                0x0000000080000380                . = ALIGN (0x4)

.gcc_except_table
 *(.gcc_except_table .gcc_except_table.*)
                0x0000000080000380                . = ALIGN (0x4)

.persist        0x0000000080000380        0x0
                0x0000000080000380                _persist_begin = .
 *(.persist .persist.*)
                0x0000000080000380                . = ALIGN (0x4)
                0x0000000080000380                _persist_end = .

.data           0x0000000080000380        0x0
 *(.gnu.linkonce.d.*)
 *(.data1)
                0x0000000080000380                . = ALIGN (0x4)
                0x0000000080000380                . = .
                0x0000000080008370                _gp = (ALIGN (0x10) + 0x7ff0)

.got            0x0000000080000380        0x0
 *(.got.plt)
 *(.got)
                0x0000000080000380                . = ALIGN (0x4)

.sdata          0x0000000080000380       0x24
                0x0000000080000380                _sdata_begin = .
 *(.sdata .sdata.* .gnu.linkonce.s.*)
 .sdata         0x0000000080000380       0x24 c:/program files/microchip/xc32/v4.30/bin/bin/../../lib/gcc/pic32mx/8.3.1/../../../../pic32mx/lib/fpu64\libpic32.a(pic32_init_cache.o)
                0x0000000080000380                __pic32_icache_size
                0x0000000080000384                __pic32_icache_linesize
                0x0000000080000388                __pic32_icache_ways
                0x000000008000038c                __pic32_dcache_size
                0x0000000080000390                __pic32_dcache_linesize
                0x0000000080000394                __pic32_dcache_ways
                0x0000000080000398                __pic32_scache_size
                0x000000008000039c                __pic32_scache_linesize
                0x00000000800003a0                __pic32_scache_ways
                0x00000000800003a4                . = ALIGN (0x4)
                0x00000000800003a4                _sdata_end = .

.lit8
 *(.lit8)

.lit4
 *(.lit4)
                0x00000000800003a4                . = ALIGN (0x4)
                0x00000000800003a4                _data_end = .
                0x00000000800003a4                _bss_begin = .

.sbss           0x00000000800003a4       0x14
                0x00000000800003a4                _sbss_begin = .
 *(.dynsbss)
 *(.sbss .sbss.* .gnu.linkonce.sb.*)
 .sbss.heartbeat_count
                0x00000000800003a4        0x4 build/default/debug/heartbeat_timer.o
                0x00000000800003a4                heartbeat_count
 .sbss.rtcc     0x00000000800003a8        0x8 build/default/debug/_ext/1865585524/plib_rtcc.o
 .sbss.usb_uart_tx_buffer_head
                0x00000000800003b0        0x4 build/default/debug/usb_uart.o
                0x00000000800003b0                usb_uart_tx_buffer_head
 .sbss.usb_uart_commands
                0x00000000800003b4        0x4 build/default/debug/usb_uart.o
                0x00000000800003b4                usb_uart_commands
 *(.scommon)
                0x00000000800003b8                _sbss_end = .
                0x00000000800003b8                . = ALIGN (0x4)

.bss            0x00000000800003b8        0x0
 *(.dynbss)
 *(COMMON)
                0x00000000800003b8                . = ALIGN ((. != 0x0)?0x4:0x1)
                0x00000000800003b8                . = ALIGN (0x4)
                0x00000000800003b8                _end = .
                0x00000000800003b8                _bss_end = .
                0x0000000000080000                _bmxdudba_address = LENGTH (kseg0_data_mem)
                0x0000000000080000                _bmxdupba_address = LENGTH (kseg0_data_mem)

/DISCARD/
 *(.pdr)
 *(.rel.dyn)
 *(.note.GNU-stack)
 *(.note.GNU-stack)
 *(.gnu_debuglink)
 *(.gnu.lto_*)
 *(.discard)

.gptab.sdata
 *(.gptab.data)
 *(.gptab.sdata)

.gptab.sbss
 *(.gptab.bss)
 *(.gptab.sbss)

.mdebug.abi32   0x0000000000000000        0x0
 *(.mdebug.abi32)
 .mdebug.abi32  0x0000000000000000        0x0 c:/program files/microchip/xc32/v4.30/bin/bin/../../lib/gcc/pic32mx/8.3.1/../../../../pic32mx/lib/fpu64\software-debug-break.o
 .mdebug.abi32  0x0000000000000000        0x0 build/default/debug/_ext/1984157808/plib_cache.o
 .mdebug.abi32  0x0000000000000000        0x0 build/default/debug/_ext/60165520/plib_clk.o
 .mdebug.abi32  0x0000000000000000        0x0 build/default/debug/_ext/1249264884/plib_coretimer.o
 .mdebug.abi32  0x0000000000000000        0x0 build/default/debug/_ext/1865200349/plib_evic.o
 .mdebug.abi32  0x0000000000000000        0x0 build/default/debug/_ext/1865254177/plib_gpio.o
 .mdebug.abi32  0x0000000000000000        0x0 build/default/debug/_ext/60179596/plib_ram.o
 .mdebug.abi32  0x0000000000000000        0x0 build/default/debug/_ext/60184501/plib_wdt.o
 .mdebug.abi32  0x0000000000000000        0x0 build/default/debug/_ext/163028504/xc32_monitor.o
 .mdebug.abi32  0x0000000000000000        0x0 build/default/debug/_ext/1014039709/sys_cache.o
 .mdebug.abi32  0x0000000000000000        0x0 build/default/debug/_ext/14461671/sys_dma.o
 .mdebug.abi32  0x0000000000000000        0x0 build/default/debug/_ext/1881668453/sys_int.o
 .mdebug.abi32  0x0000000000000000        0x0 build/default/debug/_ext/1000052432/sys_reset.o
 .mdebug.abi32  0x0000000000000000        0x0 build/default/debug/_ext/1171490990/interrupts.o
 .mdebug.abi32  0x0000000000000000        0x0 build/default/debug/_ext/1171490990/initialization.o
 .mdebug.abi32  0x0000000000000000        0x0 build/default/debug/_ext/1171490990/tasks.o
 .mdebug.abi32  0x0000000000000000        0x0 build/default/debug/_ext/1171490990/exceptions.o
 .mdebug.abi32  0x0000000000000000        0x0 build/default/debug/heartbeat_timer.o
 .mdebug.abi32  0x0000000000000000        0x0 build/default/debug/_ext/1360937237/main.o
 .mdebug.abi32  0x0000000000000000        0x0 build/default/debug/_ext/1865657120/plib_uart3.o
 .mdebug.abi32  0x0000000000000000        0x0 build/default/debug/_ext/1865585524/plib_rtcc.o
 .mdebug.abi32  0x0000000000000000        0x0 build/default/debug/_ext/513455433/plib_i2c5_master.o
 .mdebug.abi32  0x0000000000000000        0x0 build/default/debug/_ext/1865161661/plib_dmac.o
 .mdebug.abi32  0x0000000000000000        0x0 build/default/debug/usb_uart.o
 .mdebug.abi32  0x0000000000000000        0x0 build/default/debug/usb_uart_rx_lookup_table.o
 .mdebug.abi32  0x0000000000000000        0x0 build/default/debug/terminal_control.o
 .mdebug.abi32  0x0000000000000000        0x0 c:/program files/microchip/xc32/v4.30/bin/bin/../../lib/gcc/pic32mx/8.3.1/../../../../pic32mx/lib/fpu64\libpic32.a(default-on-reset.o)
 .mdebug.abi32  0x0000000000000000        0x0 c:/program files/microchip/xc32/v4.30/bin/bin/../../lib/gcc/pic32mx/8.3.1/../../../../pic32mx/lib/fpu64\libpic32.a(default-on-bootstrap.o)
 .mdebug.abi32  0x0000000000000000        0x0 c:/program files/microchip/xc32/v4.30/bin/bin/../../lib/gcc/pic32mx/8.3.1/../../../../pic32mx/lib/fpu64\libpic32.a(defaultinterrupt.o)
 .mdebug.abi32  0x0000000000000000        0x0 c:/program files/microchip/xc32/v4.30/bin/bin/../../lib/gcc/pic32mx/8.3.1/../../../../pic32mx/lib/fpu64\libc-musl.a(exit.o)
 .mdebug.abi32  0x0000000000000000        0x0 c:/program files/microchip/xc32/v4.30/bin/bin/../../lib/gcc/pic32mx/8.3.1/../../../../pic32mx/lib/fpu64\libc-musl.a(malloc.o)
 .mdebug.abi32  0x0000000000000000        0x0 c:/program files/microchip/xc32/v4.30/bin/bin/../../lib/gcc/pic32mx/8.3.1/../../../../pic32mx/lib/fpu64\libc-musl.a(expand_heap.o)
 .mdebug.abi32  0x0000000000000000        0x0 c:/program files/microchip/xc32/v4.30/bin/bin/../../lib/gcc/pic32mx/8.3.1/../../../../pic32mx/lib/fpu64\libc-musl.a(printf.o)
 .mdebug.abi32  0x0000000000000000        0x0 c:/program files/microchip/xc32/v4.30/bin/bin/../../lib/gcc/pic32mx/8.3.1/../../../../pic32mx/lib/fpu64\libc-musl.a(puts.o)
 .mdebug.abi32  0x0000000000000000        0x0 c:/program files/microchip/xc32/v4.30/bin/bin/../../lib/gcc/pic32mx/8.3.1/../../../../pic32mx/lib/fpu64\libc-musl.a(sprintf.o)
 .mdebug.abi32  0x0000000000000000        0x0 c:/program files/microchip/xc32/v4.30/bin/bin/../../lib/gcc/pic32mx/8.3.1/../../../../pic32mx/lib/fpu64\libc-musl.a(vsprintf.o)
 .mdebug.abi32  0x0000000000000000        0x0 c:/program files/microchip/xc32/v4.30/bin/bin/../../lib/gcc/pic32mx/8.3.1/../../../../pic32mx/lib/fpu64\libc-musl.a(strcat.o)
 .mdebug.abi32  0x0000000000000000        0x0 c:/program files/microchip/xc32/v4.30/bin/bin/../../lib/gcc/pic32mx/8.3.1/../../../../pic32mx/lib/fpu64\libc-musl.a(strncpy.o)
 .mdebug.abi32  0x0000000000000000        0x0 c:/program files/microchip/xc32/v4.30/bin/bin/../../lib/gcc/pic32mx/8.3.1/../../../../pic32mx/lib/fpu64\libc-musl.a(strtok.o)
 .mdebug.abi32  0x0000000000000000        0x0 c:/program files/microchip/xc32/v4.30/bin/bin/../../lib/gcc/pic32mx/8.3.1/../../../../pic32mx/lib/fpu64\libc-musl.a(_Exit.o)
 .mdebug.abi32  0x0000000000000000        0x0 c:/program files/microchip/xc32/v4.30/bin/bin/../../lib/gcc/pic32mx/8.3.1/../../../../pic32mx/lib/fpu64\libc-musl.a(libc.o)
 .mdebug.abi32  0x0000000000000000        0x0 c:/program files/microchip/xc32/v4.30/bin/bin/../../lib/gcc/pic32mx/8.3.1/../../../../pic32mx/lib/fpu64\libc-musl.a(fputs.o)
 .mdebug.abi32  0x0000000000000000        0x0 c:/program files/microchip/xc32/v4.30/bin/bin/../../lib/gcc/pic32mx/8.3.1/../../../../pic32mx/lib/fpu64\libc-musl.a(fwrite.o)
 .mdebug.abi32  0x0000000000000000        0x0 c:/program files/microchip/xc32/v4.30/bin/bin/../../lib/gcc/pic32mx/8.3.1/../../../../pic32mx/lib/fpu64\libc-musl.a(putc.o)
 .mdebug.abi32  0x0000000000000000        0x0 c:/program files/microchip/xc32/v4.30/bin/bin/../../lib/gcc/pic32mx/8.3.1/../../../../pic32mx/lib/fpu64\libc-musl.a(vfprintf.o)
 .mdebug.abi32  0x0000000000000000        0x0 c:/program files/microchip/xc32/v4.30/bin/bin/../../lib/gcc/pic32mx/8.3.1/../../../../pic32mx/lib/fpu64\libc-musl.a(vsnprintf.o)
 .mdebug.abi32  0x0000000000000000        0x0 c:/program files/microchip/xc32/v4.30/bin/bin/../../lib/gcc/pic32mx/8.3.1/../../../../pic32mx/lib/fpu64\libc-musl.a(stdout.o)
 .mdebug.abi32  0x0000000000000000        0x0 c:/program files/microchip/xc32/v4.30/bin/bin/../../lib/gcc/pic32mx/8.3.1/../../../../pic32mx/lib/fpu64\libc-musl.a(stpncpy.o)
 .mdebug.abi32  0x0000000000000000        0x0 c:/program files/microchip/xc32/v4.30/bin/bin/../../lib/gcc/pic32mx/8.3.1/../../../../pic32mx/lib/fpu64\libc-musl.a(strcspn.o)
 .mdebug.abi32  0x0000000000000000        0x0 c:/program files/microchip/xc32/v4.30/bin/bin/../../lib/gcc/pic32mx/8.3.1/../../../../pic32mx/lib/fpu64\libc-musl.a(strspn.o)
 .mdebug.abi32  0x0000000000000000        0x0 c:/program files/microchip/xc32/v4.30/bin/bin/../../lib/gcc/pic32mx/8.3.1/../../../../pic32mx/lib/fpu64\libc-musl.a(__io_fmt_needed.o)
 .mdebug.abi32  0x0000000000000000        0x0 c:/program files/microchip/xc32/v4.30/bin/bin/../../lib/gcc/pic32mx/8.3.1/../../../../pic32mx/lib/fpu64\libc-musl.a(__io_init_needed.o)
 .mdebug.abi32  0x0000000000000000        0x0 c:/program files/microchip/xc32/v4.30/bin/bin/../../lib/gcc/pic32mx/8.3.1/../../../../pic32mx/lib/fpu64\libc-musl.a(__out.o)
 .mdebug.abi32  0x0000000000000000        0x0 c:/program files/microchip/xc32/v4.30/bin/bin/../../lib/gcc/pic32mx/8.3.1/../../../../pic32mx/lib/fpu64\libc-musl.a(__pop_float.o)
 .mdebug.abi32  0x0000000000000000        0x0 c:/program files/microchip/xc32/v4.30/bin/bin/../../lib/gcc/pic32mx/8.3.1/../../../../pic32mx/lib/fpu64\libc-musl.a(__pop_int.o)
 .mdebug.abi32  0x0000000000000000        0x0 c:/program files/microchip/xc32/v4.30/bin/bin/../../lib/gcc/pic32mx/8.3.1/../../../../pic32mx/lib/fpu64\libc-musl.a(__pop_ptr.o)
 .mdebug.abi32  0x0000000000000000        0x0 c:/program files/microchip/xc32/v4.30/bin/bin/../../lib/gcc/pic32mx/8.3.1/../../../../pic32mx/lib/fpu64\libc-musl.a(__printf_core.o)
 .mdebug.abi32  0x0000000000000000        0x0 c:/program files/microchip/xc32/v4.30/bin/bin/../../lib/gcc/pic32mx/8.3.1/../../../../pic32mx/lib/fpu64\libc-musl.a(__stdio_close.o)
 .mdebug.abi32  0x0000000000000000        0x0 c:/program files/microchip/xc32/v4.30/bin/bin/../../lib/gcc/pic32mx/8.3.1/../../../../pic32mx/lib/fpu64\libc-musl.a(atoi.o)
 .mdebug.abi32  0x0000000000000000        0x0 c:/program files/microchip/xc32/v4.30/bin/bin/../../lib/gcc/pic32mx/8.3.1/../../../../pic32mx/lib/fpu64\libc-musl.a(strchrnul.o)
 .mdebug.abi32  0x0000000000000000        0x0 c:/program files/microchip/xc32/v4.30/bin/bin/../../lib/gcc/pic32mx/8.3.1/../../../../pic32mx/lib/fpu64\libc-musl.a(tolower.o)
 .mdebug.abi32  0x0000000000000000        0x0 c:/program files/microchip/xc32/v4.30/bin/bin/../../lib/gcc/pic32mx/8.3.1/../../../../pic32mx/lib/fpu64\libc-musl.a(__fmt_a.o)
 .mdebug.abi32  0x0000000000000000        0x0 c:/program files/microchip/xc32/v4.30/bin/bin/../../lib/gcc/pic32mx/8.3.1/../../../../pic32mx/lib/fpu64\libc-musl.a(__fmt_d.o)
 .mdebug.abi32  0x0000000000000000        0x0 c:/program files/microchip/xc32/v4.30/bin/bin/../../lib/gcc/pic32mx/8.3.1/../../../../pic32mx/lib/fpu64\libc-musl.a(__fmt_fp.o)
 .mdebug.abi32  0x0000000000000000        0x0 c:/program files/microchip/xc32/v4.30/bin/bin/../../lib/gcc/pic32mx/8.3.1/../../../../pic32mx/lib/fpu64\libc-musl.a(__fmt_o.o)
 .mdebug.abi32  0x0000000000000000        0x0 c:/program files/microchip/xc32/v4.30/bin/bin/../../lib/gcc/pic32mx/8.3.1/../../../../pic32mx/lib/fpu64\libc-musl.a(__fmt_s.o)
 .mdebug.abi32  0x0000000000000000        0x0 c:/program files/microchip/xc32/v4.30/bin/bin/../../lib/gcc/pic32mx/8.3.1/../../../../pic32mx/lib/fpu64\libc-musl.a(__fmt_u.o)
 .mdebug.abi32  0x0000000000000000        0x0 c:/program files/microchip/xc32/v4.30/bin/bin/../../lib/gcc/pic32mx/8.3.1/../../../../pic32mx/lib/fpu64\libc-musl.a(__fmt_x.o)
 .mdebug.abi32  0x0000000000000000        0x0 c:/program files/microchip/xc32/v4.30/bin/bin/../../lib/gcc/pic32mx/8.3.1/../../../../pic32mx/lib/fpu64\libc-musl.a(__init_stdio.o)
 .mdebug.abi32  0x0000000000000000        0x0 c:/program files/microchip/xc32/v4.30/bin/bin/../../lib/gcc/pic32mx/8.3.1/../../../../pic32mx/lib/fpu64\libc-musl.a(__io_file_needed.o)
 .mdebug.abi32  0x0000000000000000        0x0 c:/program files/microchip/xc32/v4.30/bin/bin/../../lib/gcc/pic32mx/8.3.1/../../../../pic32mx/lib/fpu64\libc-musl.a(toupper.o)
 .mdebug.abi32  0x0000000000000000        0x0 c:/program files/microchip/xc32/v4.30/bin/bin/../../lib/gcc/pic32mx/8.3.1/../../../../pic32mx/lib/fpu64\libc-musl.a(__cvt_u.o)
 .mdebug.abi32  0x0000000000000000        0x0 c:/program files/microchip/xc32/v4.30/bin/bin/../../lib/gcc/pic32mx/8.3.1/../../../../pic32mx/lib/fpu64\libm-musl.a(floor.o)
 .mdebug.abi32  0x0000000000000000        0x0 c:/program files/microchip/xc32/v4.30/bin/bin/../../lib/gcc/pic32mx/8.3.1/../../../../pic32mx/lib/fpu64\libm-musl.a(fma.o)
 .mdebug.abi32  0x0000000000000000        0x0 c:/program files/microchip/xc32/v4.30/bin/bin/../../lib/gcc/pic32mx/8.3.1/../../../../pic32mx/lib/fpu64\libm-musl.a(scalbn.o)
 .mdebug.abi32  0x0000000000000000        0x0 c:/program files/microchip/xc32/v4.30/bin/bin/../../lib/gcc/pic32mx/8.3.1/fpu64\libgcc.a(_lshrdi3.o)
 .mdebug.abi32  0x0000000000000000        0x0 c:/program files/microchip/xc32/v4.30/bin/bin/../../lib/gcc/pic32mx/8.3.1/fpu64\libgcc.a(_ashldi3.o)
 .mdebug.abi32  0x0000000000000000        0x0 c:/program files/microchip/xc32/v4.30/bin/bin/../../lib/gcc/pic32mx/8.3.1/fpu64\libgcc.a(_udivdi3.o)
 .mdebug.abi32  0x0000000000000000        0x0 c:/program files/microchip/xc32/v4.30/bin/bin/../../lib/gcc/pic32mx/8.3.1/fpu64\libgcc.a(_umoddi3.o)
 .mdebug.abi32  0x0000000000000000        0x0 c:/program files/microchip/xc32/v4.30/bin/bin/../../lib/gcc/pic32mx/8.3.1/../../../../pic32mx/lib/fpu64\libpic32.a(sbrk.o)
 .mdebug.abi32  0x0000000000000000        0x0 c:/program files/microchip/xc32/v4.30/bin/bin/../../lib/gcc/pic32mx/8.3.1/../../../../pic32mx/lib/fpu64\libpic32.a(_exit.o)
 .mdebug.abi32  0x0000000000000000        0x0 c:/program files/microchip/xc32/v4.30/bin/bin/../../lib/gcc/pic32mx/8.3.1/../../../../pic32mx/lib/fpu64\libpic32.a(lseek.o)
 .mdebug.abi32  0x0000000000000000        0x0 c:/program files/microchip/xc32/v4.30/bin/bin/../../lib/gcc/pic32mx/8.3.1/../../../../pic32mx/lib/fpu64\libpic32.a(close.o)
 .mdebug.abi32  0x0000000000000000        0x0 c:/program files/microchip/xc32/v4.30/bin/bin/../../lib/gcc/pic32mx/8.3.1/../../../../pic32mx/lib/fpu64\libpic32.a(errno.o)

.mdebug.abiN32
 *(.mdebug.abiN32)

.mdebug.abi64
 *(.mdebug.abi64)

.mdebug.abiO64
 *(.mdebug.abiO64)

.mdebug.eabi32
 *(.mdebug.eabi32)

.mdebug.eabi64
 *(.mdebug.eabi64)

.gcc_compiled_long32
 *(.gcc_compiled_long32)

.gcc_compiled_long64
 *(.gcc_compiled_long64)

.stab
 *(.stab)

.stabstr
 *(.stabstr)

.stab.excl
 *(.stab.excl)

.stab.exclstr
 *(.stab.exclstr)

.stab.index
 *(.stab.index)

.stab.indexstr
 *(.stab.indexstr)

.comment        0x0000000000000000       0xd9
 *(.comment)
 .comment       0x0000000000000000       0x2b c:/program files/microchip/xc32/v4.30/bin/bin/../../lib/gcc/pic32mx/8.3.1/../../../../pic32mx/lib/fpu64\software-debug-break.o
                                         0x2c (size before relaxing)
 .comment       0x000000000000002b       0x2c build/default/debug/_ext/1984157808/plib_cache.o
 .comment       0x000000000000002b       0x2c build/default/debug/_ext/60165520/plib_clk.o
 .comment       0x000000000000002b       0x2c build/default/debug/_ext/1249264884/plib_coretimer.o
 .comment       0x000000000000002b       0x2c build/default/debug/_ext/1865200349/plib_evic.o
 .comment       0x000000000000002b       0x2c build/default/debug/_ext/1865254177/plib_gpio.o
 .comment       0x000000000000002b       0x2c build/default/debug/_ext/60179596/plib_ram.o
 .comment       0x000000000000002b       0x2c build/default/debug/_ext/60184501/plib_wdt.o
 .comment       0x000000000000002b       0x2c build/default/debug/_ext/163028504/xc32_monitor.o
 .comment       0x000000000000002b       0x2c build/default/debug/_ext/1014039709/sys_cache.o
 .comment       0x000000000000002b       0x2c build/default/debug/_ext/14461671/sys_dma.o
 .comment       0x000000000000002b       0x2c build/default/debug/_ext/1881668453/sys_int.o
 .comment       0x000000000000002b       0x2c build/default/debug/_ext/1000052432/sys_reset.o
 .comment       0x000000000000002b       0x2c build/default/debug/_ext/1171490990/interrupts.o
 .comment       0x000000000000002b       0x2c build/default/debug/_ext/1171490990/initialization.o
 .comment       0x000000000000002b       0x2c build/default/debug/_ext/1171490990/tasks.o
 .comment       0x000000000000002b       0x2c build/default/debug/_ext/1171490990/exceptions.o
 .comment       0x000000000000002b       0x2c build/default/debug/heartbeat_timer.o
 .comment       0x000000000000002b       0x2c build/default/debug/_ext/1360937237/main.o
 .comment       0x000000000000002b       0x2c build/default/debug/_ext/1865657120/plib_uart3.o
 .comment       0x000000000000002b       0x2c build/default/debug/_ext/1865585524/plib_rtcc.o
 .comment       0x000000000000002b       0x2c build/default/debug/_ext/513455433/plib_i2c5_master.o
 .comment       0x000000000000002b       0x2c build/default/debug/_ext/1865161661/plib_dmac.o
 .comment       0x000000000000002b       0x2c build/default/debug/usb_uart.o
 .comment       0x000000000000002b       0x2c build/default/debug/usb_uart_rx_lookup_table.o
 .comment       0x000000000000002b       0x2c build/default/debug/terminal_control.o
 .comment       0x000000000000002b       0x18 c:/program files/microchip/xc32/v4.30/bin/bin/../../lib/gcc/pic32mx/8.3.1/../../../../pic32mx/lib/fpu64\libpic32.a(memset.o)
                                         0x19 (size before relaxing)
 .comment       0x0000000000000043       0x19 c:/program files/microchip/xc32/v4.30/bin/bin/../../lib/gcc/pic32mx/8.3.1/../../../../pic32mx/lib/fpu64\libpic32.a(strcmp.o)
                                         0x1a (size before relaxing)
 .comment       0x000000000000005c       0x19 c:/program files/microchip/xc32/v4.30/bin/bin/../../lib/gcc/pic32mx/8.3.1/../../../../pic32mx/lib/fpu64\libpic32.a(strcpy.o)
                                         0x1a (size before relaxing)
 .comment       0x0000000000000075       0x19 c:/program files/microchip/xc32/v4.30/bin/bin/../../lib/gcc/pic32mx/8.3.1/../../../../pic32mx/lib/fpu64\libpic32.a(strlen.o)
                                         0x1a (size before relaxing)
 .comment       0x000000000000008e       0x2c c:/program files/microchip/xc32/v4.30/bin/bin/../../lib/gcc/pic32mx/8.3.1/../../../../pic32mx/lib/fpu64\libpic32.a(default-on-reset.o)
 .comment       0x000000000000008e       0x2c c:/program files/microchip/xc32/v4.30/bin/bin/../../lib/gcc/pic32mx/8.3.1/../../../../pic32mx/lib/fpu64\libpic32.a(default-on-bootstrap.o)
 .comment       0x000000000000008e       0x2c c:/program files/microchip/xc32/v4.30/bin/bin/../../lib/gcc/pic32mx/8.3.1/../../../../pic32mx/lib/fpu64\libpic32.a(defaultinterrupt.o)
 .comment       0x000000000000008e       0x2c c:/program files/microchip/xc32/v4.30/bin/bin/../../lib/gcc/pic32mx/8.3.1/../../../../pic32mx/lib/fpu64\libc-musl.a(exit.o)
 .comment       0x000000000000008e       0x2c c:/program files/microchip/xc32/v4.30/bin/bin/../../lib/gcc/pic32mx/8.3.1/../../../../pic32mx/lib/fpu64\libc-musl.a(malloc.o)
 .comment       0x000000000000008e       0x2c c:/program files/microchip/xc32/v4.30/bin/bin/../../lib/gcc/pic32mx/8.3.1/../../../../pic32mx/lib/fpu64\libc-musl.a(expand_heap.o)
 .comment       0x000000000000008e       0x2c c:/program files/microchip/xc32/v4.30/bin/bin/../../lib/gcc/pic32mx/8.3.1/../../../../pic32mx/lib/fpu64\libc-musl.a(printf.o)
 .comment       0x000000000000008e       0x2c c:/program files/microchip/xc32/v4.30/bin/bin/../../lib/gcc/pic32mx/8.3.1/../../../../pic32mx/lib/fpu64\libc-musl.a(puts.o)
 .comment       0x000000000000008e       0x2c c:/program files/microchip/xc32/v4.30/bin/bin/../../lib/gcc/pic32mx/8.3.1/../../../../pic32mx/lib/fpu64\libc-musl.a(sprintf.o)
 .comment       0x000000000000008e       0x2c c:/program files/microchip/xc32/v4.30/bin/bin/../../lib/gcc/pic32mx/8.3.1/../../../../pic32mx/lib/fpu64\libc-musl.a(vsprintf.o)
 .comment       0x000000000000008e       0x2c c:/program files/microchip/xc32/v4.30/bin/bin/../../lib/gcc/pic32mx/8.3.1/../../../../pic32mx/lib/fpu64\libc-musl.a(strcat.o)
 .comment       0x000000000000008e       0x2c c:/program files/microchip/xc32/v4.30/bin/bin/../../lib/gcc/pic32mx/8.3.1/../../../../pic32mx/lib/fpu64\libc-musl.a(strncpy.o)
 .comment       0x000000000000008e       0x2c c:/program files/microchip/xc32/v4.30/bin/bin/../../lib/gcc/pic32mx/8.3.1/../../../../pic32mx/lib/fpu64\libc-musl.a(strtok.o)
 .comment       0x000000000000008e       0x2c c:/program files/microchip/xc32/v4.30/bin/bin/../../lib/gcc/pic32mx/8.3.1/../../../../pic32mx/lib/fpu64\libc-musl.a(_Exit.o)
 .comment       0x000000000000008e       0x2c c:/program files/microchip/xc32/v4.30/bin/bin/../../lib/gcc/pic32mx/8.3.1/../../../../pic32mx/lib/fpu64\libc-musl.a(libc.o)
 .comment       0x000000000000008e       0x2c c:/program files/microchip/xc32/v4.30/bin/bin/../../lib/gcc/pic32mx/8.3.1/../../../../pic32mx/lib/fpu64\libc-musl.a(fputs.o)
 .comment       0x000000000000008e       0x2c c:/program files/microchip/xc32/v4.30/bin/bin/../../lib/gcc/pic32mx/8.3.1/../../../../pic32mx/lib/fpu64\libc-musl.a(fwrite.o)
 .comment       0x000000000000008e       0x2c c:/program files/microchip/xc32/v4.30/bin/bin/../../lib/gcc/pic32mx/8.3.1/../../../../pic32mx/lib/fpu64\libc-musl.a(putc.o)
 .comment       0x000000000000008e       0x2c c:/program files/microchip/xc32/v4.30/bin/bin/../../lib/gcc/pic32mx/8.3.1/../../../../pic32mx/lib/fpu64\libc-musl.a(vfprintf.o)
 .comment       0x000000000000008e       0x2c c:/program files/microchip/xc32/v4.30/bin/bin/../../lib/gcc/pic32mx/8.3.1/../../../../pic32mx/lib/fpu64\libc-musl.a(vsnprintf.o)
 .comment       0x000000000000008e       0x2c c:/program files/microchip/xc32/v4.30/bin/bin/../../lib/gcc/pic32mx/8.3.1/../../../../pic32mx/lib/fpu64\libc-musl.a(stdout.o)
 .comment       0x000000000000008e       0x2c c:/program files/microchip/xc32/v4.30/bin/bin/../../lib/gcc/pic32mx/8.3.1/../../../../pic32mx/lib/fpu64\libc-musl.a(stpncpy.o)
 .comment       0x000000000000008e       0x2c c:/program files/microchip/xc32/v4.30/bin/bin/../../lib/gcc/pic32mx/8.3.1/../../../../pic32mx/lib/fpu64\libc-musl.a(strcspn.o)
 .comment       0x000000000000008e       0x2c c:/program files/microchip/xc32/v4.30/bin/bin/../../lib/gcc/pic32mx/8.3.1/../../../../pic32mx/lib/fpu64\libc-musl.a(strspn.o)
 .comment       0x000000000000008e       0x2c c:/program files/microchip/xc32/v4.30/bin/bin/../../lib/gcc/pic32mx/8.3.1/../../../../pic32mx/lib/fpu64\libc-musl.a(__io_fmt_needed.o)
 .comment       0x000000000000008e       0x2c c:/program files/microchip/xc32/v4.30/bin/bin/../../lib/gcc/pic32mx/8.3.1/../../../../pic32mx/lib/fpu64\libc-musl.a(__io_init_needed.o)
 .comment       0x000000000000008e       0x2c c:/program files/microchip/xc32/v4.30/bin/bin/../../lib/gcc/pic32mx/8.3.1/../../../../pic32mx/lib/fpu64\libc-musl.a(__out.o)
 .comment       0x000000000000008e       0x2c c:/program files/microchip/xc32/v4.30/bin/bin/../../lib/gcc/pic32mx/8.3.1/../../../../pic32mx/lib/fpu64\libc-musl.a(__pop_float.o)
 .comment       0x000000000000008e       0x2c c:/program files/microchip/xc32/v4.30/bin/bin/../../lib/gcc/pic32mx/8.3.1/../../../../pic32mx/lib/fpu64\libc-musl.a(__pop_int.o)
 .comment       0x000000000000008e       0x2c c:/program files/microchip/xc32/v4.30/bin/bin/../../lib/gcc/pic32mx/8.3.1/../../../../pic32mx/lib/fpu64\libc-musl.a(__pop_ptr.o)
 .comment       0x000000000000008e       0x2c c:/program files/microchip/xc32/v4.30/bin/bin/../../lib/gcc/pic32mx/8.3.1/../../../../pic32mx/lib/fpu64\libc-musl.a(__printf_core.o)
 .comment       0x000000000000008e       0x2c c:/program files/microchip/xc32/v4.30/bin/bin/../../lib/gcc/pic32mx/8.3.1/../../../../pic32mx/lib/fpu64\libc-musl.a(__stdio_close.o)
 .comment       0x000000000000008e       0x2c c:/program files/microchip/xc32/v4.30/bin/bin/../../lib/gcc/pic32mx/8.3.1/../../../../pic32mx/lib/fpu64\libc-musl.a(atoi.o)
 .comment       0x000000000000008e       0x2c c:/program files/microchip/xc32/v4.30/bin/bin/../../lib/gcc/pic32mx/8.3.1/../../../../pic32mx/lib/fpu64\libc-musl.a(strchrnul.o)
 .comment       0x000000000000008e       0x2c c:/program files/microchip/xc32/v4.30/bin/bin/../../lib/gcc/pic32mx/8.3.1/../../../../pic32mx/lib/fpu64\libc-musl.a(tolower.o)
 .comment       0x000000000000008e       0x2c c:/program files/microchip/xc32/v4.30/bin/bin/../../lib/gcc/pic32mx/8.3.1/../../../../pic32mx/lib/fpu64\libc-musl.a(__fmt_a.o)
 .comment       0x000000000000008e       0x2c c:/program files/microchip/xc32/v4.30/bin/bin/../../lib/gcc/pic32mx/8.3.1/../../../../pic32mx/lib/fpu64\libc-musl.a(__fmt_d.o)
 .comment       0x000000000000008e       0x2c c:/program files/microchip/xc32/v4.30/bin/bin/../../lib/gcc/pic32mx/8.3.1/../../../../pic32mx/lib/fpu64\libc-musl.a(__fmt_fp.o)
 .comment       0x000000000000008e       0x2c c:/program files/microchip/xc32/v4.30/bin/bin/../../lib/gcc/pic32mx/8.3.1/../../../../pic32mx/lib/fpu64\libc-musl.a(__fmt_o.o)
 .comment       0x000000000000008e       0x2c c:/program files/microchip/xc32/v4.30/bin/bin/../../lib/gcc/pic32mx/8.3.1/../../../../pic32mx/lib/fpu64\libc-musl.a(__fmt_s.o)
 .comment       0x000000000000008e       0x2c c:/program files/microchip/xc32/v4.30/bin/bin/../../lib/gcc/pic32mx/8.3.1/../../../../pic32mx/lib/fpu64\libc-musl.a(__fmt_u.o)
 .comment       0x000000000000008e       0x2c c:/program files/microchip/xc32/v4.30/bin/bin/../../lib/gcc/pic32mx/8.3.1/../../../../pic32mx/lib/fpu64\libc-musl.a(__fmt_x.o)
 .comment       0x000000000000008e       0x2c c:/program files/microchip/xc32/v4.30/bin/bin/../../lib/gcc/pic32mx/8.3.1/../../../../pic32mx/lib/fpu64\libc-musl.a(__init_stdio.o)
 .comment       0x000000000000008e       0x2c c:/program files/microchip/xc32/v4.30/bin/bin/../../lib/gcc/pic32mx/8.3.1/../../../../pic32mx/lib/fpu64\libc-musl.a(__io_file_needed.o)
 .comment       0x000000000000008e       0x2c c:/program files/microchip/xc32/v4.30/bin/bin/../../lib/gcc/pic32mx/8.3.1/../../../../pic32mx/lib/fpu64\libc-musl.a(toupper.o)
 .comment       0x000000000000008e       0x2c c:/program files/microchip/xc32/v4.30/bin/bin/../../lib/gcc/pic32mx/8.3.1/../../../../pic32mx/lib/fpu64\libc-musl.a(__cvt_u.o)
 .comment       0x000000000000008e       0x2c c:/program files/microchip/xc32/v4.30/bin/bin/../../lib/gcc/pic32mx/8.3.1/../../../../pic32mx/lib/fpu64\libm-musl.a(floor.o)
 .comment       0x000000000000008e       0x2c c:/program files/microchip/xc32/v4.30/bin/bin/../../lib/gcc/pic32mx/8.3.1/../../../../pic32mx/lib/fpu64\libm-musl.a(fma.o)
 .comment       0x000000000000008e       0x2c c:/program files/microchip/xc32/v4.30/bin/bin/../../lib/gcc/pic32mx/8.3.1/../../../../pic32mx/lib/fpu64\libm-musl.a(scalbn.o)
 .comment       0x000000000000008e       0x2c c:/program files/microchip/xc32/v4.30/bin/bin/../../lib/gcc/pic32mx/8.3.1/fpu64\libgcc.a(_lshrdi3.o)
 .comment       0x000000000000008e       0x2c c:/program files/microchip/xc32/v4.30/bin/bin/../../lib/gcc/pic32mx/8.3.1/fpu64\libgcc.a(_ashldi3.o)
 .comment       0x000000000000008e       0x2c c:/program files/microchip/xc32/v4.30/bin/bin/../../lib/gcc/pic32mx/8.3.1/fpu64\libgcc.a(_udivdi3.o)
 .comment       0x000000000000008e       0x2c c:/program files/microchip/xc32/v4.30/bin/bin/../../lib/gcc/pic32mx/8.3.1/fpu64\libgcc.a(_umoddi3.o)
 .comment       0x000000000000008e       0x4b c:/program files/microchip/xc32/v4.30/bin/bin/../../lib/gcc/pic32mx/8.3.1/../../../../pic32mx/lib/fpu64\libpic32.a(sbrk.o)
                                         0x77 (size before relaxing)
 .comment       0x00000000000000d9       0x2c c:/program files/microchip/xc32/v4.30/bin/bin/../../lib/gcc/pic32mx/8.3.1/../../../../pic32mx/lib/fpu64\libpic32.a(_exit.o)
 .comment       0x00000000000000d9       0x2c c:/program files/microchip/xc32/v4.30/bin/bin/../../lib/gcc/pic32mx/8.3.1/../../../../pic32mx/lib/fpu64\libpic32.a(lseek.o)
 .comment       0x00000000000000d9       0x2c c:/program files/microchip/xc32/v4.30/bin/bin/../../lib/gcc/pic32mx/8.3.1/../../../../pic32mx/lib/fpu64\libpic32.a(close.o)
 .comment       0x00000000000000d9       0x2c c:/program files/microchip/xc32/v4.30/bin/bin/../../lib/gcc/pic32mx/8.3.1/../../../../pic32mx/lib/fpu64\libpic32.a(errno.o)

.debug
 *.elf(.debug)
 *(.debug)

.line
 *.elf(.line)
 *(.line)

.debug_srcinfo
 *.elf(.debug_srcinfo)
 *(.debug_srcinfo)

.debug_sfnames
 *.elf(.debug_sfnames)
 *(.debug_sfnames)

.debug_aranges  0x0000000000000000     0x1090
 *.elf(.debug_aranges)
 *(.debug_aranges)
 .debug_aranges
                0x0000000000000000       0x20 c:/program files/microchip/xc32/v4.30/bin/bin/../../lib/gcc/pic32mx/8.3.1/../../../../pic32mx/lib/fpu64\software-debug-break.o
 .debug_aranges
                0x0000000000000020       0xc0 build/default/debug/_ext/1984157808/plib_cache.o
 .debug_aranges
                0x00000000000000e0       0x20 build/default/debug/_ext/60165520/plib_clk.o
 .debug_aranges
                0x0000000000000100       0x60 build/default/debug/_ext/1249264884/plib_coretimer.o
 .debug_aranges
                0x0000000000000160       0x68 build/default/debug/_ext/1865200349/plib_evic.o
 .debug_aranges
                0x00000000000001c8       0x60 build/default/debug/_ext/1865254177/plib_gpio.o
 .debug_aranges
                0x0000000000000228       0x30 build/default/debug/_ext/60179596/plib_ram.o
 .debug_aranges
                0x0000000000000258       0x50 build/default/debug/_ext/60184501/plib_wdt.o
 .debug_aranges
                0x00000000000002a8       0x28 build/default/debug/_ext/163028504/xc32_monitor.o
 .debug_aranges
                0x00000000000002d0       0x80 build/default/debug/_ext/1014039709/sys_cache.o
 .debug_aranges
                0x0000000000000350       0x30 build/default/debug/_ext/14461671/sys_dma.o
 .debug_aranges
                0x0000000000000380       0x40 build/default/debug/_ext/1881668453/sys_int.o
 .debug_aranges
                0x00000000000003c0       0x20 build/default/debug/_ext/1000052432/sys_reset.o
 .debug_aranges
                0x00000000000003e0       0x60 build/default/debug/_ext/1171490990/interrupts.o
 .debug_aranges
                0x0000000000000440       0x20 build/default/debug/_ext/1171490990/initialization.o
 .debug_aranges
                0x0000000000000460       0x20 build/default/debug/_ext/1171490990/tasks.o
 .debug_aranges
                0x0000000000000480       0x38 build/default/debug/_ext/1171490990/exceptions.o
 .debug_aranges
                0x00000000000004b8       0x20 build/default/debug/heartbeat_timer.o
 .debug_aranges
                0x00000000000004d8       0x20 build/default/debug/_ext/1360937237/main.o
 .debug_aranges
                0x00000000000004f8       0xb0 build/default/debug/_ext/1865657120/plib_uart3.o
 .debug_aranges
                0x00000000000005a8       0x58 build/default/debug/_ext/1865585524/plib_rtcc.o
 .debug_aranges
                0x0000000000000600       0x70 build/default/debug/_ext/513455433/plib_i2c5_master.o
 .debug_aranges
                0x0000000000000670       0x90 build/default/debug/_ext/1865161661/plib_dmac.o
 .debug_aranges
                0x0000000000000700       0x70 build/default/debug/usb_uart.o
 .debug_aranges
                0x0000000000000770       0x38 build/default/debug/usb_uart_rx_lookup_table.o
 .debug_aranges
                0x00000000000007a8       0x60 build/default/debug/terminal_control.o
 .debug_aranges
                0x0000000000000808       0x50 C:\Users\drewm\AppData\Local\Temp\ccEOzkaJ.o
 .debug_aranges
                0x0000000000000858       0x20 c:/program files/microchip/xc32/v4.30/bin/bin/../../lib/gcc/pic32mx/8.3.1/../../../../pic32mx/lib/fpu64\libpic32.a(default-on-reset.o)
 .debug_aranges
                0x0000000000000878       0x20 c:/program files/microchip/xc32/v4.30/bin/bin/../../lib/gcc/pic32mx/8.3.1/../../../../pic32mx/lib/fpu64\libpic32.a(default-on-bootstrap.o)
 .debug_aranges
                0x0000000000000898       0x20 c:/program files/microchip/xc32/v4.30/bin/bin/../../lib/gcc/pic32mx/8.3.1/../../../../pic32mx/lib/fpu64\libpic32.a(defaultinterrupt.o)
 .debug_aranges
                0x00000000000008b8       0x30 c:/program files/microchip/xc32/v4.30/bin/bin/../../lib/gcc/pic32mx/8.3.1/../../../../pic32mx/lib/fpu64\libc-musl.a(exit.o)
 .debug_aranges
                0x00000000000008e8       0x70 c:/program files/microchip/xc32/v4.30/bin/bin/../../lib/gcc/pic32mx/8.3.1/../../../../pic32mx/lib/fpu64\libc-musl.a(malloc.o)
 .debug_aranges
                0x0000000000000958       0x20 c:/program files/microchip/xc32/v4.30/bin/bin/../../lib/gcc/pic32mx/8.3.1/../../../../pic32mx/lib/fpu64\libc-musl.a(expand_heap.o)
 .debug_aranges
                0x0000000000000978       0x20 c:/program files/microchip/xc32/v4.30/bin/bin/../../lib/gcc/pic32mx/8.3.1/../../../../pic32mx/lib/fpu64\libc-musl.a(printf.o)
 .debug_aranges
                0x0000000000000998       0x20 c:/program files/microchip/xc32/v4.30/bin/bin/../../lib/gcc/pic32mx/8.3.1/../../../../pic32mx/lib/fpu64\libc-musl.a(puts.o)
 .debug_aranges
                0x00000000000009b8       0x20 c:/program files/microchip/xc32/v4.30/bin/bin/../../lib/gcc/pic32mx/8.3.1/../../../../pic32mx/lib/fpu64\libc-musl.a(sprintf.o)
 .debug_aranges
                0x00000000000009d8       0x20 c:/program files/microchip/xc32/v4.30/bin/bin/../../lib/gcc/pic32mx/8.3.1/../../../../pic32mx/lib/fpu64\libc-musl.a(vsprintf.o)
 .debug_aranges
                0x00000000000009f8       0x20 c:/program files/microchip/xc32/v4.30/bin/bin/../../lib/gcc/pic32mx/8.3.1/../../../../pic32mx/lib/fpu64\libc-musl.a(strcat.o)
 .debug_aranges
                0x0000000000000a18       0x20 c:/program files/microchip/xc32/v4.30/bin/bin/../../lib/gcc/pic32mx/8.3.1/../../../../pic32mx/lib/fpu64\libc-musl.a(strncpy.o)
 .debug_aranges
                0x0000000000000a38       0x20 c:/program files/microchip/xc32/v4.30/bin/bin/../../lib/gcc/pic32mx/8.3.1/../../../../pic32mx/lib/fpu64\libc-musl.a(strtok.o)
 .debug_aranges
                0x0000000000000a58       0x20 c:/program files/microchip/xc32/v4.30/bin/bin/../../lib/gcc/pic32mx/8.3.1/../../../../pic32mx/lib/fpu64\libc-musl.a(_Exit.o)
 .debug_aranges
                0x0000000000000a78       0x18 c:/program files/microchip/xc32/v4.30/bin/bin/../../lib/gcc/pic32mx/8.3.1/../../../../pic32mx/lib/fpu64\libc-musl.a(libc.o)
 .debug_aranges
                0x0000000000000a90       0x20 c:/program files/microchip/xc32/v4.30/bin/bin/../../lib/gcc/pic32mx/8.3.1/../../../../pic32mx/lib/fpu64\libc-musl.a(fputs.o)
 .debug_aranges
                0x0000000000000ab0       0x28 c:/program files/microchip/xc32/v4.30/bin/bin/../../lib/gcc/pic32mx/8.3.1/../../../../pic32mx/lib/fpu64\libc-musl.a(fwrite.o)
 .debug_aranges
                0x0000000000000ad8       0x30 c:/program files/microchip/xc32/v4.30/bin/bin/../../lib/gcc/pic32mx/8.3.1/../../../../pic32mx/lib/fpu64\libc-musl.a(putc.o)
 .debug_aranges
                0x0000000000000b08       0x28 c:/program files/microchip/xc32/v4.30/bin/bin/../../lib/gcc/pic32mx/8.3.1/../../../../pic32mx/lib/fpu64\libc-musl.a(vfprintf.o)
 .debug_aranges
                0x0000000000000b30       0x20 c:/program files/microchip/xc32/v4.30/bin/bin/../../lib/gcc/pic32mx/8.3.1/../../../../pic32mx/lib/fpu64\libc-musl.a(vsnprintf.o)
 .debug_aranges
                0x0000000000000b50       0x30 c:/program files/microchip/xc32/v4.30/bin/bin/../../lib/gcc/pic32mx/8.3.1/../../../../pic32mx/lib/fpu64\libc-musl.a(stdout.o)
 .debug_aranges
                0x0000000000000b80       0x20 c:/program files/microchip/xc32/v4.30/bin/bin/../../lib/gcc/pic32mx/8.3.1/../../../../pic32mx/lib/fpu64\libc-musl.a(stpncpy.o)
 .debug_aranges
                0x0000000000000ba0       0x20 c:/program files/microchip/xc32/v4.30/bin/bin/../../lib/gcc/pic32mx/8.3.1/../../../../pic32mx/lib/fpu64\libc-musl.a(strcspn.o)
 .debug_aranges
                0x0000000000000bc0       0x20 c:/program files/microchip/xc32/v4.30/bin/bin/../../lib/gcc/pic32mx/8.3.1/../../../../pic32mx/lib/fpu64\libc-musl.a(strspn.o)
 .debug_aranges
                0x0000000000000be0       0x20 c:/program files/microchip/xc32/v4.30/bin/bin/../../lib/gcc/pic32mx/8.3.1/../../../../pic32mx/lib/fpu64\libc-musl.a(__io_fmt_needed.o)
 .debug_aranges
                0x0000000000000c00       0x28 c:/program files/microchip/xc32/v4.30/bin/bin/../../lib/gcc/pic32mx/8.3.1/../../../../pic32mx/lib/fpu64\libc-musl.a(__io_init_needed.o)
 .debug_aranges
                0x0000000000000c28       0x28 c:/program files/microchip/xc32/v4.30/bin/bin/../../lib/gcc/pic32mx/8.3.1/../../../../pic32mx/lib/fpu64\libc-musl.a(__out.o)
 .debug_aranges
                0x0000000000000c50       0x20 c:/program files/microchip/xc32/v4.30/bin/bin/../../lib/gcc/pic32mx/8.3.1/../../../../pic32mx/lib/fpu64\libc-musl.a(__pop_float.o)
 .debug_aranges
                0x0000000000000c70       0x20 c:/program files/microchip/xc32/v4.30/bin/bin/../../lib/gcc/pic32mx/8.3.1/../../../../pic32mx/lib/fpu64\libc-musl.a(__pop_int.o)
 .debug_aranges
                0x0000000000000c90       0x20 c:/program files/microchip/xc32/v4.30/bin/bin/../../lib/gcc/pic32mx/8.3.1/../../../../pic32mx/lib/fpu64\libc-musl.a(__pop_ptr.o)
 .debug_aranges
                0x0000000000000cb0       0x50 c:/program files/microchip/xc32/v4.30/bin/bin/../../lib/gcc/pic32mx/8.3.1/../../../../pic32mx/lib/fpu64\libc-musl.a(__printf_core.o)
 .debug_aranges
                0x0000000000000d00       0x28 c:/program files/microchip/xc32/v4.30/bin/bin/../../lib/gcc/pic32mx/8.3.1/../../../../pic32mx/lib/fpu64\libc-musl.a(__stdio_close.o)
 .debug_aranges
                0x0000000000000d28       0x20 c:/program files/microchip/xc32/v4.30/bin/bin/../../lib/gcc/pic32mx/8.3.1/../../../../pic32mx/lib/fpu64\libc-musl.a(atoi.o)
 .debug_aranges
                0x0000000000000d48       0x20 c:/program files/microchip/xc32/v4.30/bin/bin/../../lib/gcc/pic32mx/8.3.1/../../../../pic32mx/lib/fpu64\libc-musl.a(strchrnul.o)
 .debug_aranges
                0x0000000000000d68       0x28 c:/program files/microchip/xc32/v4.30/bin/bin/../../lib/gcc/pic32mx/8.3.1/../../../../pic32mx/lib/fpu64\libc-musl.a(tolower.o)
 .debug_aranges
                0x0000000000000d90       0x20 c:/program files/microchip/xc32/v4.30/bin/bin/../../lib/gcc/pic32mx/8.3.1/../../../../pic32mx/lib/fpu64\libc-musl.a(__fmt_a.o)
 .debug_aranges
                0x0000000000000db0       0x20 c:/program files/microchip/xc32/v4.30/bin/bin/../../lib/gcc/pic32mx/8.3.1/../../../../pic32mx/lib/fpu64\libc-musl.a(__fmt_d.o)
 .debug_aranges
                0x0000000000000dd0       0x20 c:/program files/microchip/xc32/v4.30/bin/bin/../../lib/gcc/pic32mx/8.3.1/../../../../pic32mx/lib/fpu64\libc-musl.a(__fmt_fp.o)
 .debug_aranges
                0x0000000000000df0       0x20 c:/program files/microchip/xc32/v4.30/bin/bin/../../lib/gcc/pic32mx/8.3.1/../../../../pic32mx/lib/fpu64\libc-musl.a(__fmt_o.o)
 .debug_aranges
                0x0000000000000e10       0x20 c:/program files/microchip/xc32/v4.30/bin/bin/../../lib/gcc/pic32mx/8.3.1/../../../../pic32mx/lib/fpu64\libc-musl.a(__fmt_s.o)
 .debug_aranges
                0x0000000000000e30       0x20 c:/program files/microchip/xc32/v4.30/bin/bin/../../lib/gcc/pic32mx/8.3.1/../../../../pic32mx/lib/fpu64\libc-musl.a(__fmt_u.o)
 .debug_aranges
                0x0000000000000e50       0x20 c:/program files/microchip/xc32/v4.30/bin/bin/../../lib/gcc/pic32mx/8.3.1/../../../../pic32mx/lib/fpu64\libc-musl.a(__fmt_x.o)
 .debug_aranges
                0x0000000000000e70       0x28 c:/program files/microchip/xc32/v4.30/bin/bin/../../lib/gcc/pic32mx/8.3.1/../../../../pic32mx/lib/fpu64\libc-musl.a(__init_stdio.o)
 .debug_aranges
                0x0000000000000e98       0x20 c:/program files/microchip/xc32/v4.30/bin/bin/../../lib/gcc/pic32mx/8.3.1/../../../../pic32mx/lib/fpu64\libc-musl.a(__io_file_needed.o)
 .debug_aranges
                0x0000000000000eb8       0x28 c:/program files/microchip/xc32/v4.30/bin/bin/../../lib/gcc/pic32mx/8.3.1/../../../../pic32mx/lib/fpu64\libc-musl.a(toupper.o)
 .debug_aranges
                0x0000000000000ee0       0x20 c:/program files/microchip/xc32/v4.30/bin/bin/../../lib/gcc/pic32mx/8.3.1/../../../../pic32mx/lib/fpu64\libc-musl.a(__cvt_u.o)
 .debug_aranges
                0x0000000000000f00       0x20 c:/program files/microchip/xc32/v4.30/bin/bin/../../lib/gcc/pic32mx/8.3.1/../../../../pic32mx/lib/fpu64\libm-musl.a(floor.o)
 .debug_aranges
                0x0000000000000f20       0x30 c:/program files/microchip/xc32/v4.30/bin/bin/../../lib/gcc/pic32mx/8.3.1/../../../../pic32mx/lib/fpu64\libm-musl.a(fma.o)
 .debug_aranges
                0x0000000000000f50       0x20 c:/program files/microchip/xc32/v4.30/bin/bin/../../lib/gcc/pic32mx/8.3.1/../../../../pic32mx/lib/fpu64\libm-musl.a(scalbn.o)
 .debug_aranges
                0x0000000000000f70       0x20 c:/program files/microchip/xc32/v4.30/bin/bin/../../lib/gcc/pic32mx/8.3.1/fpu64\libgcc.a(_lshrdi3.o)
 .debug_aranges
                0x0000000000000f90       0x20 c:/program files/microchip/xc32/v4.30/bin/bin/../../lib/gcc/pic32mx/8.3.1/fpu64\libgcc.a(_ashldi3.o)
 .debug_aranges
                0x0000000000000fb0       0x20 c:/program files/microchip/xc32/v4.30/bin/bin/../../lib/gcc/pic32mx/8.3.1/fpu64\libgcc.a(_udivdi3.o)
 .debug_aranges
                0x0000000000000fd0       0x20 c:/program files/microchip/xc32/v4.30/bin/bin/../../lib/gcc/pic32mx/8.3.1/fpu64\libgcc.a(_umoddi3.o)
 .debug_aranges
                0x0000000000000ff0       0x40 c:/program files/microchip/xc32/v4.30/bin/bin/../../lib/gcc/pic32mx/8.3.1/../../../../pic32mx/lib/fpu64\libpic32.a(sbrk.o)
 .debug_aranges
                0x0000000000001030       0x20 c:/program files/microchip/xc32/v4.30/bin/bin/../../lib/gcc/pic32mx/8.3.1/../../../../pic32mx/lib/fpu64\libpic32.a(_exit.o)
 .debug_aranges
                0x0000000000001050       0x20 c:/program files/microchip/xc32/v4.30/bin/bin/../../lib/gcc/pic32mx/8.3.1/../../../../pic32mx/lib/fpu64\libpic32.a(lseek.o)
 .debug_aranges
                0x0000000000001070       0x20 c:/program files/microchip/xc32/v4.30/bin/bin/../../lib/gcc/pic32mx/8.3.1/../../../../pic32mx/lib/fpu64\libpic32.a(close.o)

.debug_pubnames
 *.elf(.debug_pubnames)
 *(.debug_pubnames)

.debug_info     0x0000000000000000    0x10f5b
 *.elf(.debug_info .gnu.linkonce.wi.*)
 *(.debug_info .gnu.linkonce.wi.*)
 .debug_info    0x0000000000000000       0x3f c:/program files/microchip/xc32/v4.30/bin/bin/../../lib/gcc/pic32mx/8.3.1/../../../../pic32mx/lib/fpu64\software-debug-break.o
 .debug_info    0x000000000000003f      0x693 build/default/debug/_ext/1984157808/plib_cache.o
 .debug_info    0x00000000000006d2      0x4e0 build/default/debug/_ext/60165520/plib_clk.o
 .debug_info    0x0000000000000bb2      0x5f3 build/default/debug/_ext/1249264884/plib_coretimer.o
 .debug_info    0x00000000000011a5      0x388 build/default/debug/_ext/1865200349/plib_evic.o
 .debug_info    0x000000000000152d      0x574 build/default/debug/_ext/1865254177/plib_gpio.o
 .debug_info    0x0000000000001aa1      0x1e9 build/default/debug/_ext/60179596/plib_ram.o
 .debug_info    0x0000000000001c8a      0x1f3 build/default/debug/_ext/60184501/plib_wdt.o
 .debug_info    0x0000000000001e7d       0xe9 build/default/debug/_ext/163028504/xc32_monitor.o
 .debug_info    0x0000000000001f66      0x3b4 build/default/debug/_ext/1014039709/sys_cache.o
 .debug_info    0x000000000000231a      0x23a build/default/debug/_ext/14461671/sys_dma.o
 .debug_info    0x0000000000002554      0x2a5 build/default/debug/_ext/1881668453/sys_int.o
 .debug_info    0x00000000000027f9       0xd4 build/default/debug/_ext/1000052432/sys_reset.o
 .debug_info    0x00000000000028cd      0x257 build/default/debug/_ext/1171490990/interrupts.o
 .debug_info    0x0000000000002b24      0x377 build/default/debug/_ext/1171490990/initialization.o
 .debug_info    0x0000000000002e9b       0xa2 build/default/debug/_ext/1171490990/tasks.o
 .debug_info    0x0000000000002f3d      0x125 build/default/debug/_ext/1171490990/exceptions.o
 .debug_info    0x0000000000003062      0x120 build/default/debug/heartbeat_timer.o
 .debug_info    0x0000000000003182      0x23f build/default/debug/_ext/1360937237/main.o
 .debug_info    0x00000000000033c1      0x7e6 build/default/debug/_ext/1865657120/plib_uart3.o
 .debug_info    0x0000000000003ba7      0xa1c build/default/debug/_ext/1865585524/plib_rtcc.o
 .debug_info    0x00000000000045c3      0x826 build/default/debug/_ext/513455433/plib_i2c5_master.o
 .debug_info    0x0000000000004de9      0xe96 build/default/debug/_ext/1865161661/plib_dmac.o
 .debug_info    0x0000000000005c7f     0x17b5 build/default/debug/usb_uart.o
 .debug_info    0x0000000000007434      0x6cf build/default/debug/usb_uart_rx_lookup_table.o
 .debug_info    0x0000000000007b03      0x9a9 build/default/debug/terminal_control.o
 .debug_info    0x00000000000084ac       0x22 C:\Users\drewm\AppData\Local\Temp\ccEOzkaJ.o
 .debug_info    0x00000000000084ce       0x3f c:/program files/microchip/xc32/v4.30/bin/bin/../../lib/gcc/pic32mx/8.3.1/../../../../pic32mx/lib/fpu64\libpic32.a(default-on-reset.o)
 .debug_info    0x000000000000850d       0x3f c:/program files/microchip/xc32/v4.30/bin/bin/../../lib/gcc/pic32mx/8.3.1/../../../../pic32mx/lib/fpu64\libpic32.a(default-on-bootstrap.o)
 .debug_info    0x000000000000854c       0x40 c:/program files/microchip/xc32/v4.30/bin/bin/../../lib/gcc/pic32mx/8.3.1/../../../../pic32mx/lib/fpu64\libpic32.a(defaultinterrupt.o)
 .debug_info    0x000000000000858c      0x14c c:/program files/microchip/xc32/v4.30/bin/bin/../../lib/gcc/pic32mx/8.3.1/../../../../pic32mx/lib/fpu64\libc-musl.a(exit.o)
 .debug_info    0x00000000000086d8      0xfed c:/program files/microchip/xc32/v4.30/bin/bin/../../lib/gcc/pic32mx/8.3.1/../../../../pic32mx/lib/fpu64\libc-musl.a(malloc.o)
 .debug_info    0x00000000000096c5      0x105 c:/program files/microchip/xc32/v4.30/bin/bin/../../lib/gcc/pic32mx/8.3.1/../../../../pic32mx/lib/fpu64\libc-musl.a(expand_heap.o)
 .debug_info    0x00000000000097ca      0x116 c:/program files/microchip/xc32/v4.30/bin/bin/../../lib/gcc/pic32mx/8.3.1/../../../../pic32mx/lib/fpu64\libc-musl.a(printf.o)
 .debug_info    0x00000000000098e0      0x3a3 c:/program files/microchip/xc32/v4.30/bin/bin/../../lib/gcc/pic32mx/8.3.1/../../../../pic32mx/lib/fpu64\libc-musl.a(puts.o)
 .debug_info    0x0000000000009c83      0x103 c:/program files/microchip/xc32/v4.30/bin/bin/../../lib/gcc/pic32mx/8.3.1/../../../../pic32mx/lib/fpu64\libc-musl.a(sprintf.o)
 .debug_info    0x0000000000009d86       0xfd c:/program files/microchip/xc32/v4.30/bin/bin/../../lib/gcc/pic32mx/8.3.1/../../../../pic32mx/lib/fpu64\libc-musl.a(vsprintf.o)
 .debug_info    0x0000000000009e83       0xd7 c:/program files/microchip/xc32/v4.30/bin/bin/../../lib/gcc/pic32mx/8.3.1/../../../../pic32mx/lib/fpu64\libc-musl.a(strcat.o)
 .debug_info    0x0000000000009f5a       0xdc c:/program files/microchip/xc32/v4.30/bin/bin/../../lib/gcc/pic32mx/8.3.1/../../../../pic32mx/lib/fpu64\libc-musl.a(strncpy.o)
 .debug_info    0x000000000000a036       0xf0 c:/program files/microchip/xc32/v4.30/bin/bin/../../lib/gcc/pic32mx/8.3.1/../../../../pic32mx/lib/fpu64\libc-musl.a(strtok.o)
 .debug_info    0x000000000000a126       0xa2 c:/program files/microchip/xc32/v4.30/bin/bin/../../lib/gcc/pic32mx/8.3.1/../../../../pic32mx/lib/fpu64\libc-musl.a(_Exit.o)
 .debug_info    0x000000000000a1c8      0x276 c:/program files/microchip/xc32/v4.30/bin/bin/../../lib/gcc/pic32mx/8.3.1/../../../../pic32mx/lib/fpu64\libc-musl.a(libc.o)
 .debug_info    0x000000000000a43e      0x3ad c:/program files/microchip/xc32/v4.30/bin/bin/../../lib/gcc/pic32mx/8.3.1/../../../../pic32mx/lib/fpu64\libc-musl.a(fputs.o)
 .debug_info    0x000000000000a7eb      0x24c c:/program files/microchip/xc32/v4.30/bin/bin/../../lib/gcc/pic32mx/8.3.1/../../../../pic32mx/lib/fpu64\libc-musl.a(fwrite.o)
 .debug_info    0x000000000000aa37      0x217 c:/program files/microchip/xc32/v4.30/bin/bin/../../lib/gcc/pic32mx/8.3.1/../../../../pic32mx/lib/fpu64\libc-musl.a(putc.o)
 .debug_info    0x000000000000ac4e      0x3ef c:/program files/microchip/xc32/v4.30/bin/bin/../../lib/gcc/pic32mx/8.3.1/../../../../pic32mx/lib/fpu64\libc-musl.a(vfprintf.o)
 .debug_info    0x000000000000b03d      0x41a c:/program files/microchip/xc32/v4.30/bin/bin/../../lib/gcc/pic32mx/8.3.1/../../../../pic32mx/lib/fpu64\libc-musl.a(vsnprintf.o)
 .debug_info    0x000000000000b457      0x40c c:/program files/microchip/xc32/v4.30/bin/bin/../../lib/gcc/pic32mx/8.3.1/../../../../pic32mx/lib/fpu64\libc-musl.a(stdout.o)
 .debug_info    0x000000000000b863       0xdf c:/program files/microchip/xc32/v4.30/bin/bin/../../lib/gcc/pic32mx/8.3.1/../../../../pic32mx/lib/fpu64\libc-musl.a(stpncpy.o)
 .debug_info    0x000000000000b942      0x114 c:/program files/microchip/xc32/v4.30/bin/bin/../../lib/gcc/pic32mx/8.3.1/../../../../pic32mx/lib/fpu64\libc-musl.a(strcspn.o)
 .debug_info    0x000000000000ba56       0xf1 c:/program files/microchip/xc32/v4.30/bin/bin/../../lib/gcc/pic32mx/8.3.1/../../../../pic32mx/lib/fpu64\libc-musl.a(strspn.o)
 .debug_info    0x000000000000bb47      0x17e c:/program files/microchip/xc32/v4.30/bin/bin/../../lib/gcc/pic32mx/8.3.1/../../../../pic32mx/lib/fpu64\libc-musl.a(__io_fmt_needed.o)
 .debug_info    0x000000000000bcc5       0xdf c:/program files/microchip/xc32/v4.30/bin/bin/../../lib/gcc/pic32mx/8.3.1/../../../../pic32mx/lib/fpu64\libc-musl.a(__io_init_needed.o)
 .debug_info    0x000000000000bda4      0x29f c:/program files/microchip/xc32/v4.30/bin/bin/../../lib/gcc/pic32mx/8.3.1/../../../../pic32mx/lib/fpu64\libc-musl.a(__out.o)
 .debug_info    0x000000000000c043      0x134 c:/program files/microchip/xc32/v4.30/bin/bin/../../lib/gcc/pic32mx/8.3.1/../../../../pic32mx/lib/fpu64\libc-musl.a(__pop_float.o)
 .debug_info    0x000000000000c177      0x14e c:/program files/microchip/xc32/v4.30/bin/bin/../../lib/gcc/pic32mx/8.3.1/../../../../pic32mx/lib/fpu64\libc-musl.a(__pop_int.o)
 .debug_info    0x000000000000c2c5      0x15e c:/program files/microchip/xc32/v4.30/bin/bin/../../lib/gcc/pic32mx/8.3.1/../../../../pic32mx/lib/fpu64\libc-musl.a(__pop_ptr.o)
 .debug_info    0x000000000000c423      0xa27 c:/program files/microchip/xc32/v4.30/bin/bin/../../lib/gcc/pic32mx/8.3.1/../../../../pic32mx/lib/fpu64\libc-musl.a(__printf_core.o)
 .debug_info    0x000000000000ce4a      0x3f6 c:/program files/microchip/xc32/v4.30/bin/bin/../../lib/gcc/pic32mx/8.3.1/../../../../pic32mx/lib/fpu64\libc-musl.a(__stdio_close.o)
 .debug_info    0x000000000000d240       0xee c:/program files/microchip/xc32/v4.30/bin/bin/../../lib/gcc/pic32mx/8.3.1/../../../../pic32mx/lib/fpu64\libc-musl.a(atoi.o)
 .debug_info    0x000000000000d32e      0x12a c:/program files/microchip/xc32/v4.30/bin/bin/../../lib/gcc/pic32mx/8.3.1/../../../../pic32mx/lib/fpu64\libc-musl.a(strchrnul.o)
 .debug_info    0x000000000000d458      0x11b c:/program files/microchip/xc32/v4.30/bin/bin/../../lib/gcc/pic32mx/8.3.1/../../../../pic32mx/lib/fpu64\libc-musl.a(tolower.o)
 .debug_info    0x000000000000d573      0x604 c:/program files/microchip/xc32/v4.30/bin/bin/../../lib/gcc/pic32mx/8.3.1/../../../../pic32mx/lib/fpu64\libc-musl.a(__fmt_a.o)
 .debug_info    0x000000000000db77      0x327 c:/program files/microchip/xc32/v4.30/bin/bin/../../lib/gcc/pic32mx/8.3.1/../../../../pic32mx/lib/fpu64\libc-musl.a(__fmt_d.o)
 .debug_info    0x000000000000de9e      0x64e c:/program files/microchip/xc32/v4.30/bin/bin/../../lib/gcc/pic32mx/8.3.1/../../../../pic32mx/lib/fpu64\libc-musl.a(__fmt_fp.o)
 .debug_info    0x000000000000e4ec      0x2f8 c:/program files/microchip/xc32/v4.30/bin/bin/../../lib/gcc/pic32mx/8.3.1/../../../../pic32mx/lib/fpu64\libc-musl.a(__fmt_o.o)
 .debug_info    0x000000000000e7e4      0x2a9 c:/program files/microchip/xc32/v4.30/bin/bin/../../lib/gcc/pic32mx/8.3.1/../../../../pic32mx/lib/fpu64\libc-musl.a(__fmt_s.o)
 .debug_info    0x000000000000ea8d      0x2f8 c:/program files/microchip/xc32/v4.30/bin/bin/../../lib/gcc/pic32mx/8.3.1/../../../../pic32mx/lib/fpu64\libc-musl.a(__fmt_u.o)
 .debug_info    0x000000000000ed85      0x328 c:/program files/microchip/xc32/v4.30/bin/bin/../../lib/gcc/pic32mx/8.3.1/../../../../pic32mx/lib/fpu64\libc-musl.a(__fmt_x.o)
 .debug_info    0x000000000000f0ad       0xb9 c:/program files/microchip/xc32/v4.30/bin/bin/../../lib/gcc/pic32mx/8.3.1/../../../../pic32mx/lib/fpu64\libc-musl.a(__init_stdio.o)
 .debug_info    0x000000000000f166       0xaf c:/program files/microchip/xc32/v4.30/bin/bin/../../lib/gcc/pic32mx/8.3.1/../../../../pic32mx/lib/fpu64\libc-musl.a(__io_file_needed.o)
 .debug_info    0x000000000000f215      0x11b c:/program files/microchip/xc32/v4.30/bin/bin/../../lib/gcc/pic32mx/8.3.1/../../../../pic32mx/lib/fpu64\libc-musl.a(toupper.o)
 .debug_info    0x000000000000f330      0x1d0 c:/program files/microchip/xc32/v4.30/bin/bin/../../lib/gcc/pic32mx/8.3.1/../../../../pic32mx/lib/fpu64\libc-musl.a(__cvt_u.o)
 .debug_info    0x000000000000f500      0x16d c:/program files/microchip/xc32/v4.30/bin/bin/../../lib/gcc/pic32mx/8.3.1/../../../../pic32mx/lib/fpu64\libm-musl.a(floor.o)
 .debug_info    0x000000000000f66d      0x534 c:/program files/microchip/xc32/v4.30/bin/bin/../../lib/gcc/pic32mx/8.3.1/../../../../pic32mx/lib/fpu64\libm-musl.a(fma.o)
 .debug_info    0x000000000000fba1      0x109 c:/program files/microchip/xc32/v4.30/bin/bin/../../lib/gcc/pic32mx/8.3.1/../../../../pic32mx/lib/fpu64\libm-musl.a(scalbn.o)
 .debug_info    0x000000000000fcaa      0x1aa c:/program files/microchip/xc32/v4.30/bin/bin/../../lib/gcc/pic32mx/8.3.1/fpu64\libgcc.a(_lshrdi3.o)
 .debug_info    0x000000000000fe54      0x1aa c:/program files/microchip/xc32/v4.30/bin/bin/../../lib/gcc/pic32mx/8.3.1/fpu64\libgcc.a(_ashldi3.o)
 .debug_info    0x000000000000fffe      0x6ca c:/program files/microchip/xc32/v4.30/bin/bin/../../lib/gcc/pic32mx/8.3.1/fpu64\libgcc.a(_udivdi3.o)
 .debug_info    0x00000000000106c8      0x73e c:/program files/microchip/xc32/v4.30/bin/bin/../../lib/gcc/pic32mx/8.3.1/fpu64\libgcc.a(_umoddi3.o)
 .debug_info    0x0000000000010e06       0x97 c:/program files/microchip/xc32/v4.30/bin/bin/../../lib/gcc/pic32mx/8.3.1/../../../../pic32mx/lib/fpu64\libpic32.a(sbrk.o)
 .debug_info    0x0000000000010e9d       0x40 c:/program files/microchip/xc32/v4.30/bin/bin/../../lib/gcc/pic32mx/8.3.1/../../../../pic32mx/lib/fpu64\libpic32.a(_exit.o)
 .debug_info    0x0000000000010edd       0x3f c:/program files/microchip/xc32/v4.30/bin/bin/../../lib/gcc/pic32mx/8.3.1/../../../../pic32mx/lib/fpu64\libpic32.a(lseek.o)
 .debug_info    0x0000000000010f1c       0x3f c:/program files/microchip/xc32/v4.30/bin/bin/../../lib/gcc/pic32mx/8.3.1/../../../../pic32mx/lib/fpu64\libpic32.a(close.o)

.debug_abbrev   0x0000000000000000     0x5e08
 *.elf(.debug_abbrev)
 *(.debug_abbrev)
 .debug_abbrev  0x0000000000000000       0x2e c:/program files/microchip/xc32/v4.30/bin/bin/../../lib/gcc/pic32mx/8.3.1/../../../../pic32mx/lib/fpu64\software-debug-break.o
 .debug_abbrev  0x000000000000002e      0x156 build/default/debug/_ext/1984157808/plib_cache.o
 .debug_abbrev  0x0000000000000184      0x136 build/default/debug/_ext/60165520/plib_clk.o
 .debug_abbrev  0x00000000000002ba      0x1f2 build/default/debug/_ext/1249264884/plib_coretimer.o
 .debug_abbrev  0x00000000000004ac      0x13a build/default/debug/_ext/1865200349/plib_evic.o
 .debug_abbrev  0x00000000000005e6      0x142 build/default/debug/_ext/1865254177/plib_gpio.o
 .debug_abbrev  0x0000000000000728       0xd6 build/default/debug/_ext/60179596/plib_ram.o
 .debug_abbrev  0x00000000000007fe      0x112 build/default/debug/_ext/60184501/plib_wdt.o
 .debug_abbrev  0x0000000000000910       0x9e build/default/debug/_ext/163028504/xc32_monitor.o
 .debug_abbrev  0x00000000000009ae       0xb7 build/default/debug/_ext/1014039709/sys_cache.o
 .debug_abbrev  0x0000000000000a65       0xd3 build/default/debug/_ext/14461671/sys_dma.o
 .debug_abbrev  0x0000000000000b38      0x13a build/default/debug/_ext/1881668453/sys_int.o
 .debug_abbrev  0x0000000000000c72       0x85 build/default/debug/_ext/1000052432/sys_reset.o
 .debug_abbrev  0x0000000000000cf7       0x67 build/default/debug/_ext/1171490990/interrupts.o
 .debug_abbrev  0x0000000000000d5e      0x17c build/default/debug/_ext/1171490990/initialization.o
 .debug_abbrev  0x0000000000000eda       0x46 build/default/debug/_ext/1171490990/tasks.o
 .debug_abbrev  0x0000000000000f20       0x81 build/default/debug/_ext/1171490990/exceptions.o
 .debug_abbrev  0x0000000000000fa1       0xc6 build/default/debug/heartbeat_timer.o
 .debug_abbrev  0x0000000000001067      0x119 build/default/debug/_ext/1360937237/main.o
 .debug_abbrev  0x0000000000001180      0x250 build/default/debug/_ext/1865657120/plib_uart3.o
 .debug_abbrev  0x00000000000013d0      0x372 build/default/debug/_ext/1865585524/plib_rtcc.o
 .debug_abbrev  0x0000000000001742      0x212 build/default/debug/_ext/513455433/plib_i2c5_master.o
 .debug_abbrev  0x0000000000001954      0x2fe build/default/debug/_ext/1865161661/plib_dmac.o
 .debug_abbrev  0x0000000000001c52      0x392 build/default/debug/usb_uart.o
 .debug_abbrev  0x0000000000001fe4      0x1a3 build/default/debug/usb_uart_rx_lookup_table.o
 .debug_abbrev  0x0000000000002187      0x100 build/default/debug/terminal_control.o
 .debug_abbrev  0x0000000000002287       0x12 C:\Users\drewm\AppData\Local\Temp\ccEOzkaJ.o
 .debug_abbrev  0x0000000000002299       0x2e c:/program files/microchip/xc32/v4.30/bin/bin/../../lib/gcc/pic32mx/8.3.1/../../../../pic32mx/lib/fpu64\libpic32.a(default-on-reset.o)
 .debug_abbrev  0x00000000000022c7       0x2e c:/program files/microchip/xc32/v4.30/bin/bin/../../lib/gcc/pic32mx/8.3.1/../../../../pic32mx/lib/fpu64\libpic32.a(default-on-bootstrap.o)
 .debug_abbrev  0x00000000000022f5       0x31 c:/program files/microchip/xc32/v4.30/bin/bin/../../lib/gcc/pic32mx/8.3.1/../../../../pic32mx/lib/fpu64\libpic32.a(defaultinterrupt.o)
 .debug_abbrev  0x0000000000002326      0x110 c:/program files/microchip/xc32/v4.30/bin/bin/../../lib/gcc/pic32mx/8.3.1/../../../../pic32mx/lib/fpu64\libc-musl.a(exit.o)
 .debug_abbrev  0x0000000000002436      0x43a c:/program files/microchip/xc32/v4.30/bin/bin/../../lib/gcc/pic32mx/8.3.1/../../../../pic32mx/lib/fpu64\libc-musl.a(malloc.o)
 .debug_abbrev  0x0000000000002870       0xc4 c:/program files/microchip/xc32/v4.30/bin/bin/../../lib/gcc/pic32mx/8.3.1/../../../../pic32mx/lib/fpu64\libc-musl.a(expand_heap.o)
 .debug_abbrev  0x0000000000002934      0x106 c:/program files/microchip/xc32/v4.30/bin/bin/../../lib/gcc/pic32mx/8.3.1/../../../../pic32mx/lib/fpu64\libc-musl.a(printf.o)
 .debug_abbrev  0x0000000000002a3a      0x159 c:/program files/microchip/xc32/v4.30/bin/bin/../../lib/gcc/pic32mx/8.3.1/../../../../pic32mx/lib/fpu64\libc-musl.a(puts.o)
 .debug_abbrev  0x0000000000002b93       0xdb c:/program files/microchip/xc32/v4.30/bin/bin/../../lib/gcc/pic32mx/8.3.1/../../../../pic32mx/lib/fpu64\libc-musl.a(sprintf.o)
 .debug_abbrev  0x0000000000002c6e       0xb1 c:/program files/microchip/xc32/v4.30/bin/bin/../../lib/gcc/pic32mx/8.3.1/../../../../pic32mx/lib/fpu64\libc-musl.a(vsprintf.o)
 .debug_abbrev  0x0000000000002d1f       0xaf c:/program files/microchip/xc32/v4.30/bin/bin/../../lib/gcc/pic32mx/8.3.1/../../../../pic32mx/lib/fpu64\libc-musl.a(strcat.o)
 .debug_abbrev  0x0000000000002dce       0x9d c:/program files/microchip/xc32/v4.30/bin/bin/../../lib/gcc/pic32mx/8.3.1/../../../../pic32mx/lib/fpu64\libc-musl.a(strncpy.o)
 .debug_abbrev  0x0000000000002e6b       0xac c:/program files/microchip/xc32/v4.30/bin/bin/../../lib/gcc/pic32mx/8.3.1/../../../../pic32mx/lib/fpu64\libc-musl.a(strtok.o)
 .debug_abbrev  0x0000000000002f17       0x8a c:/program files/microchip/xc32/v4.30/bin/bin/../../lib/gcc/pic32mx/8.3.1/../../../../pic32mx/lib/fpu64\libc-musl.a(_Exit.o)
 .debug_abbrev  0x0000000000002fa1       0xd4 c:/program files/microchip/xc32/v4.30/bin/bin/../../lib/gcc/pic32mx/8.3.1/../../../../pic32mx/lib/fpu64\libc-musl.a(libc.o)
 .debug_abbrev  0x0000000000003075      0x146 c:/program files/microchip/xc32/v4.30/bin/bin/../../lib/gcc/pic32mx/8.3.1/../../../../pic32mx/lib/fpu64\libc-musl.a(fputs.o)
 .debug_abbrev  0x00000000000031bb      0x13c c:/program files/microchip/xc32/v4.30/bin/bin/../../lib/gcc/pic32mx/8.3.1/../../../../pic32mx/lib/fpu64\libc-musl.a(fwrite.o)
 .debug_abbrev  0x00000000000032f7      0x122 c:/program files/microchip/xc32/v4.30/bin/bin/../../lib/gcc/pic32mx/8.3.1/../../../../pic32mx/lib/fpu64\libc-musl.a(putc.o)
 .debug_abbrev  0x0000000000003419      0x178 c:/program files/microchip/xc32/v4.30/bin/bin/../../lib/gcc/pic32mx/8.3.1/../../../../pic32mx/lib/fpu64\libc-musl.a(vfprintf.o)
 .debug_abbrev  0x0000000000003591      0x182 c:/program files/microchip/xc32/v4.30/bin/bin/../../lib/gcc/pic32mx/8.3.1/../../../../pic32mx/lib/fpu64\libc-musl.a(vsnprintf.o)
 .debug_abbrev  0x0000000000003713      0x1bd c:/program files/microchip/xc32/v4.30/bin/bin/../../lib/gcc/pic32mx/8.3.1/../../../../pic32mx/lib/fpu64\libc-musl.a(stdout.o)
 .debug_abbrev  0x00000000000038d0       0xa5 c:/program files/microchip/xc32/v4.30/bin/bin/../../lib/gcc/pic32mx/8.3.1/../../../../pic32mx/lib/fpu64\libc-musl.a(stpncpy.o)
 .debug_abbrev  0x0000000000003975       0xe1 c:/program files/microchip/xc32/v4.30/bin/bin/../../lib/gcc/pic32mx/8.3.1/../../../../pic32mx/lib/fpu64\libc-musl.a(strcspn.o)
 .debug_abbrev  0x0000000000003a56       0xd2 c:/program files/microchip/xc32/v4.30/bin/bin/../../lib/gcc/pic32mx/8.3.1/../../../../pic32mx/lib/fpu64\libc-musl.a(strspn.o)
 .debug_abbrev  0x0000000000003b28       0x67 c:/program files/microchip/xc32/v4.30/bin/bin/../../lib/gcc/pic32mx/8.3.1/../../../../pic32mx/lib/fpu64\libc-musl.a(__io_fmt_needed.o)
 .debug_abbrev  0x0000000000003b8f       0x81 c:/program files/microchip/xc32/v4.30/bin/bin/../../lib/gcc/pic32mx/8.3.1/../../../../pic32mx/lib/fpu64\libc-musl.a(__io_init_needed.o)
 .debug_abbrev  0x0000000000003c10      0x17a c:/program files/microchip/xc32/v4.30/bin/bin/../../lib/gcc/pic32mx/8.3.1/../../../../pic32mx/lib/fpu64\libc-musl.a(__out.o)
 .debug_abbrev  0x0000000000003d8a       0xc3 c:/program files/microchip/xc32/v4.30/bin/bin/../../lib/gcc/pic32mx/8.3.1/../../../../pic32mx/lib/fpu64\libc-musl.a(__pop_float.o)
 .debug_abbrev  0x0000000000003e4d       0xc3 c:/program files/microchip/xc32/v4.30/bin/bin/../../lib/gcc/pic32mx/8.3.1/../../../../pic32mx/lib/fpu64\libc-musl.a(__pop_int.o)
 .debug_abbrev  0x0000000000003f10       0xd7 c:/program files/microchip/xc32/v4.30/bin/bin/../../lib/gcc/pic32mx/8.3.1/../../../../pic32mx/lib/fpu64\libc-musl.a(__pop_ptr.o)
 .debug_abbrev  0x0000000000003fe7      0x318 c:/program files/microchip/xc32/v4.30/bin/bin/../../lib/gcc/pic32mx/8.3.1/../../../../pic32mx/lib/fpu64\libc-musl.a(__printf_core.o)
 .debug_abbrev  0x00000000000042ff      0x15a c:/program files/microchip/xc32/v4.30/bin/bin/../../lib/gcc/pic32mx/8.3.1/../../../../pic32mx/lib/fpu64\libc-musl.a(__stdio_close.o)
 .debug_abbrev  0x0000000000004459       0xc4 c:/program files/microchip/xc32/v4.30/bin/bin/../../lib/gcc/pic32mx/8.3.1/../../../../pic32mx/lib/fpu64\libc-musl.a(atoi.o)
 .debug_abbrev  0x000000000000451d       0xbc c:/program files/microchip/xc32/v4.30/bin/bin/../../lib/gcc/pic32mx/8.3.1/../../../../pic32mx/lib/fpu64\libc-musl.a(strchrnul.o)
 .debug_abbrev  0x00000000000045d9       0xf1 c:/program files/microchip/xc32/v4.30/bin/bin/../../lib/gcc/pic32mx/8.3.1/../../../../pic32mx/lib/fpu64\libc-musl.a(tolower.o)
 .debug_abbrev  0x00000000000046ca      0x1d5 c:/program files/microchip/xc32/v4.30/bin/bin/../../lib/gcc/pic32mx/8.3.1/../../../../pic32mx/lib/fpu64\libc-musl.a(__fmt_a.o)
 .debug_abbrev  0x000000000000489f      0x161 c:/program files/microchip/xc32/v4.30/bin/bin/../../lib/gcc/pic32mx/8.3.1/../../../../pic32mx/lib/fpu64\libc-musl.a(__fmt_d.o)
 .debug_abbrev  0x0000000000004a00      0x1e3 c:/program files/microchip/xc32/v4.30/bin/bin/../../lib/gcc/pic32mx/8.3.1/../../../../pic32mx/lib/fpu64\libc-musl.a(__fmt_fp.o)
 .debug_abbrev  0x0000000000004be3      0x161 c:/program files/microchip/xc32/v4.30/bin/bin/../../lib/gcc/pic32mx/8.3.1/../../../../pic32mx/lib/fpu64\libc-musl.a(__fmt_o.o)
 .debug_abbrev  0x0000000000004d44      0x14c c:/program files/microchip/xc32/v4.30/bin/bin/../../lib/gcc/pic32mx/8.3.1/../../../../pic32mx/lib/fpu64\libc-musl.a(__fmt_s.o)
 .debug_abbrev  0x0000000000004e90      0x161 c:/program files/microchip/xc32/v4.30/bin/bin/../../lib/gcc/pic32mx/8.3.1/../../../../pic32mx/lib/fpu64\libc-musl.a(__fmt_u.o)
 .debug_abbrev  0x0000000000004ff1      0x150 c:/program files/microchip/xc32/v4.30/bin/bin/../../lib/gcc/pic32mx/8.3.1/../../../../pic32mx/lib/fpu64\libc-musl.a(__fmt_x.o)
 .debug_abbrev  0x0000000000005141       0x65 c:/program files/microchip/xc32/v4.30/bin/bin/../../lib/gcc/pic32mx/8.3.1/../../../../pic32mx/lib/fpu64\libc-musl.a(__init_stdio.o)
 .debug_abbrev  0x00000000000051a6       0x67 c:/program files/microchip/xc32/v4.30/bin/bin/../../lib/gcc/pic32mx/8.3.1/../../../../pic32mx/lib/fpu64\libc-musl.a(__io_file_needed.o)
 .debug_abbrev  0x000000000000520d       0xf1 c:/program files/microchip/xc32/v4.30/bin/bin/../../lib/gcc/pic32mx/8.3.1/../../../../pic32mx/lib/fpu64\libc-musl.a(toupper.o)
 .debug_abbrev  0x00000000000052fe       0xe5 c:/program files/microchip/xc32/v4.30/bin/bin/../../lib/gcc/pic32mx/8.3.1/../../../../pic32mx/lib/fpu64\libc-musl.a(__cvt_u.o)
 .debug_abbrev  0x00000000000053e3      0x101 c:/program files/microchip/xc32/v4.30/bin/bin/../../lib/gcc/pic32mx/8.3.1/../../../../pic32mx/lib/fpu64\libm-musl.a(floor.o)
 .debug_abbrev  0x00000000000054e4      0x22d c:/program files/microchip/xc32/v4.30/bin/bin/../../lib/gcc/pic32mx/8.3.1/../../../../pic32mx/lib/fpu64\libm-musl.a(fma.o)
 .debug_abbrev  0x0000000000005711       0xac c:/program files/microchip/xc32/v4.30/bin/bin/../../lib/gcc/pic32mx/8.3.1/../../../../pic32mx/lib/fpu64\libm-musl.a(scalbn.o)
 .debug_abbrev  0x00000000000057bd      0x121 c:/program files/microchip/xc32/v4.30/bin/bin/../../lib/gcc/pic32mx/8.3.1/fpu64\libgcc.a(_lshrdi3.o)
 .debug_abbrev  0x00000000000058de      0x121 c:/program files/microchip/xc32/v4.30/bin/bin/../../lib/gcc/pic32mx/8.3.1/fpu64\libgcc.a(_ashldi3.o)
 .debug_abbrev  0x00000000000059ff      0x184 c:/program files/microchip/xc32/v4.30/bin/bin/../../lib/gcc/pic32mx/8.3.1/fpu64\libgcc.a(_udivdi3.o)
 .debug_abbrev  0x0000000000005b83      0x19a c:/program files/microchip/xc32/v4.30/bin/bin/../../lib/gcc/pic32mx/8.3.1/fpu64\libgcc.a(_umoddi3.o)
 .debug_abbrev  0x0000000000005d1d       0x5e c:/program files/microchip/xc32/v4.30/bin/bin/../../lib/gcc/pic32mx/8.3.1/../../../../pic32mx/lib/fpu64\libpic32.a(sbrk.o)
 .debug_abbrev  0x0000000000005d7b       0x31 c:/program files/microchip/xc32/v4.30/bin/bin/../../lib/gcc/pic32mx/8.3.1/../../../../pic32mx/lib/fpu64\libpic32.a(_exit.o)
 .debug_abbrev  0x0000000000005dac       0x2e c:/program files/microchip/xc32/v4.30/bin/bin/../../lib/gcc/pic32mx/8.3.1/../../../../pic32mx/lib/fpu64\libpic32.a(lseek.o)
 .debug_abbrev  0x0000000000005dda       0x2e c:/program files/microchip/xc32/v4.30/bin/bin/../../lib/gcc/pic32mx/8.3.1/../../../../pic32mx/lib/fpu64\libpic32.a(close.o)

.debug_line     0x0000000000000000     0xdf83
 *.elf(.debug_line)
 *(.debug_line)
 .debug_line    0x0000000000000000       0xb1 c:/program files/microchip/xc32/v4.30/bin/bin/../../lib/gcc/pic32mx/8.3.1/../../../../pic32mx/lib/fpu64\software-debug-break.o
 .debug_line    0x00000000000000b1      0x388 build/default/debug/_ext/1984157808/plib_cache.o
 .debug_line    0x0000000000000439      0x231 build/default/debug/_ext/60165520/plib_clk.o
 .debug_line    0x000000000000066a      0x35c build/default/debug/_ext/1249264884/plib_coretimer.o
 .debug_line    0x00000000000009c6      0x374 build/default/debug/_ext/1865200349/plib_evic.o
 .debug_line    0x0000000000000d3a      0x374 build/default/debug/_ext/1865254177/plib_gpio.o
 .debug_line    0x00000000000010ae      0x1ee build/default/debug/_ext/60179596/plib_ram.o
 .debug_line    0x000000000000129c      0x239 build/default/debug/_ext/60184501/plib_wdt.o
 .debug_line    0x00000000000014d5      0x12e build/default/debug/_ext/163028504/xc32_monitor.o
 .debug_line    0x0000000000001603      0x370 build/default/debug/_ext/1014039709/sys_cache.o
 .debug_line    0x0000000000001973      0x14a build/default/debug/_ext/14461671/sys_dma.o
 .debug_line    0x0000000000001abd      0x252 build/default/debug/_ext/1881668453/sys_int.o
 .debug_line    0x0000000000001d0f      0x1ab build/default/debug/_ext/1000052432/sys_reset.o
 .debug_line    0x0000000000001eba      0x1bd build/default/debug/_ext/1171490990/interrupts.o
 .debug_line    0x0000000000002077      0x6b1 build/default/debug/_ext/1171490990/initialization.o
 .debug_line    0x0000000000002728       0xb8 build/default/debug/_ext/1171490990/tasks.o
 .debug_line    0x00000000000027e0      0x20a build/default/debug/_ext/1171490990/exceptions.o
 .debug_line    0x00000000000029ea      0x236 build/default/debug/heartbeat_timer.o
 .debug_line    0x0000000000002c20      0x43f build/default/debug/_ext/1360937237/main.o
 .debug_line    0x000000000000305f      0x8a2 build/default/debug/_ext/1865657120/plib_uart3.o
 .debug_line    0x0000000000003901      0x6bb build/default/debug/_ext/1865585524/plib_rtcc.o
 .debug_line    0x0000000000003fbc      0x90f build/default/debug/_ext/513455433/plib_i2c5_master.o
 .debug_line    0x00000000000048cb      0x924 build/default/debug/_ext/1865161661/plib_dmac.o
 .debug_line    0x00000000000051ef      0x892 build/default/debug/usb_uart.o
 .debug_line    0x0000000000005a81      0x2a2 build/default/debug/usb_uart_rx_lookup_table.o
 .debug_line    0x0000000000005d23      0x2a4 build/default/debug/terminal_control.o
 .debug_line    0x0000000000005fc7      0x17c C:\Users\drewm\AppData\Local\Temp\ccEOzkaJ.o
 .debug_line    0x0000000000006143       0xa6 c:/program files/microchip/xc32/v4.30/bin/bin/../../lib/gcc/pic32mx/8.3.1/../../../../pic32mx/lib/fpu64\libpic32.a(default-on-reset.o)
 .debug_line    0x00000000000061e9       0xaa c:/program files/microchip/xc32/v4.30/bin/bin/../../lib/gcc/pic32mx/8.3.1/../../../../pic32mx/lib/fpu64\libpic32.a(default-on-bootstrap.o)
 .debug_line    0x0000000000006293       0xc9 c:/program files/microchip/xc32/v4.30/bin/bin/../../lib/gcc/pic32mx/8.3.1/../../../../pic32mx/lib/fpu64\libpic32.a(defaultinterrupt.o)
 .debug_line    0x000000000000635c      0x1e3 c:/program files/microchip/xc32/v4.30/bin/bin/../../lib/gcc/pic32mx/8.3.1/../../../../pic32mx/lib/fpu64\libc-musl.a(exit.o)
 .debug_line    0x000000000000653f      0xb47 c:/program files/microchip/xc32/v4.30/bin/bin/../../lib/gcc/pic32mx/8.3.1/../../../../pic32mx/lib/fpu64\libc-musl.a(malloc.o)
 .debug_line    0x0000000000007086      0x14b c:/program files/microchip/xc32/v4.30/bin/bin/../../lib/gcc/pic32mx/8.3.1/../../../../pic32mx/lib/fpu64\libc-musl.a(expand_heap.o)
 .debug_line    0x00000000000071d1      0x1b3 c:/program files/microchip/xc32/v4.30/bin/bin/../../lib/gcc/pic32mx/8.3.1/../../../../pic32mx/lib/fpu64\libc-musl.a(printf.o)
 .debug_line    0x0000000000007384      0x239 c:/program files/microchip/xc32/v4.30/bin/bin/../../lib/gcc/pic32mx/8.3.1/../../../../pic32mx/lib/fpu64\libc-musl.a(puts.o)
 .debug_line    0x00000000000075bd      0x1af c:/program files/microchip/xc32/v4.30/bin/bin/../../lib/gcc/pic32mx/8.3.1/../../../../pic32mx/lib/fpu64\libc-musl.a(sprintf.o)
 .debug_line    0x000000000000776c      0x1a0 c:/program files/microchip/xc32/v4.30/bin/bin/../../lib/gcc/pic32mx/8.3.1/../../../../pic32mx/lib/fpu64\libc-musl.a(vsprintf.o)
 .debug_line    0x000000000000790c      0x12c c:/program files/microchip/xc32/v4.30/bin/bin/../../lib/gcc/pic32mx/8.3.1/../../../../pic32mx/lib/fpu64\libc-musl.a(strcat.o)
 .debug_line    0x0000000000007a38      0x129 c:/program files/microchip/xc32/v4.30/bin/bin/../../lib/gcc/pic32mx/8.3.1/../../../../pic32mx/lib/fpu64\libc-musl.a(strncpy.o)
 .debug_line    0x0000000000007b61      0x171 c:/program files/microchip/xc32/v4.30/bin/bin/../../lib/gcc/pic32mx/8.3.1/../../../../pic32mx/lib/fpu64\libc-musl.a(strtok.o)
 .debug_line    0x0000000000007cd2       0xb0 c:/program files/microchip/xc32/v4.30/bin/bin/../../lib/gcc/pic32mx/8.3.1/../../../../pic32mx/lib/fpu64\libc-musl.a(_Exit.o)
 .debug_line    0x0000000000007d82      0x112 c:/program files/microchip/xc32/v4.30/bin/bin/../../lib/gcc/pic32mx/8.3.1/../../../../pic32mx/lib/fpu64\libc-musl.a(libc.o)
 .debug_line    0x0000000000007e94      0x2aa c:/program files/microchip/xc32/v4.30/bin/bin/../../lib/gcc/pic32mx/8.3.1/../../../../pic32mx/lib/fpu64\libc-musl.a(fputs.o)
 .debug_line    0x000000000000813e      0x1fe c:/program files/microchip/xc32/v4.30/bin/bin/../../lib/gcc/pic32mx/8.3.1/../../../../pic32mx/lib/fpu64\libc-musl.a(fwrite.o)
 .debug_line    0x000000000000833c      0x210 c:/program files/microchip/xc32/v4.30/bin/bin/../../lib/gcc/pic32mx/8.3.1/../../../../pic32mx/lib/fpu64\libc-musl.a(putc.o)
 .debug_line    0x000000000000854c      0x25f c:/program files/microchip/xc32/v4.30/bin/bin/../../lib/gcc/pic32mx/8.3.1/../../../../pic32mx/lib/fpu64\libc-musl.a(vfprintf.o)
 .debug_line    0x00000000000087ab      0x28d c:/program files/microchip/xc32/v4.30/bin/bin/../../lib/gcc/pic32mx/8.3.1/../../../../pic32mx/lib/fpu64\libc-musl.a(vsnprintf.o)
 .debug_line    0x0000000000008a38      0x273 c:/program files/microchip/xc32/v4.30/bin/bin/../../lib/gcc/pic32mx/8.3.1/../../../../pic32mx/lib/fpu64\libc-musl.a(stdout.o)
 .debug_line    0x0000000000008cab      0x156 c:/program files/microchip/xc32/v4.30/bin/bin/../../lib/gcc/pic32mx/8.3.1/../../../../pic32mx/lib/fpu64\libc-musl.a(stpncpy.o)
 .debug_line    0x0000000000008e01      0x1f3 c:/program files/microchip/xc32/v4.30/bin/bin/../../lib/gcc/pic32mx/8.3.1/../../../../pic32mx/lib/fpu64\libc-musl.a(strcspn.o)
 .debug_line    0x0000000000008ff4      0x190 c:/program files/microchip/xc32/v4.30/bin/bin/../../lib/gcc/pic32mx/8.3.1/../../../../pic32mx/lib/fpu64\libc-musl.a(strspn.o)
 .debug_line    0x0000000000009184       0xd0 c:/program files/microchip/xc32/v4.30/bin/bin/../../lib/gcc/pic32mx/8.3.1/../../../../pic32mx/lib/fpu64\libc-musl.a(__io_fmt_needed.o)
 .debug_line    0x0000000000009254      0x155 c:/program files/microchip/xc32/v4.30/bin/bin/../../lib/gcc/pic32mx/8.3.1/../../../../pic32mx/lib/fpu64\libc-musl.a(__io_init_needed.o)
 .debug_line    0x00000000000093a9      0x2ac c:/program files/microchip/xc32/v4.30/bin/bin/../../lib/gcc/pic32mx/8.3.1/../../../../pic32mx/lib/fpu64\libc-musl.a(__out.o)
 .debug_line    0x0000000000009655      0x1bb c:/program files/microchip/xc32/v4.30/bin/bin/../../lib/gcc/pic32mx/8.3.1/../../../../pic32mx/lib/fpu64\libc-musl.a(__pop_float.o)
 .debug_line    0x0000000000009810      0x25a c:/program files/microchip/xc32/v4.30/bin/bin/../../lib/gcc/pic32mx/8.3.1/../../../../pic32mx/lib/fpu64\libc-musl.a(__pop_int.o)
 .debug_line    0x0000000000009a6a      0x213 c:/program files/microchip/xc32/v4.30/bin/bin/../../lib/gcc/pic32mx/8.3.1/../../../../pic32mx/lib/fpu64\libc-musl.a(__pop_ptr.o)
 .debug_line    0x0000000000009c7d      0x70f c:/program files/microchip/xc32/v4.30/bin/bin/../../lib/gcc/pic32mx/8.3.1/../../../../pic32mx/lib/fpu64\libc-musl.a(__printf_core.o)
 .debug_line    0x000000000000a38c      0x2f8 c:/program files/microchip/xc32/v4.30/bin/bin/../../lib/gcc/pic32mx/8.3.1/../../../../pic32mx/lib/fpu64\libc-musl.a(__stdio_close.o)
 .debug_line    0x000000000000a684      0x17c c:/program files/microchip/xc32/v4.30/bin/bin/../../lib/gcc/pic32mx/8.3.1/../../../../pic32mx/lib/fpu64\libc-musl.a(atoi.o)
 .debug_line    0x000000000000a800      0x206 c:/program files/microchip/xc32/v4.30/bin/bin/../../lib/gcc/pic32mx/8.3.1/../../../../pic32mx/lib/fpu64\libc-musl.a(strchrnul.o)
 .debug_line    0x000000000000aa06      0x1c1 c:/program files/microchip/xc32/v4.30/bin/bin/../../lib/gcc/pic32mx/8.3.1/../../../../pic32mx/lib/fpu64\libc-musl.a(tolower.o)
 .debug_line    0x000000000000abc7      0x675 c:/program files/microchip/xc32/v4.30/bin/bin/../../lib/gcc/pic32mx/8.3.1/../../../../pic32mx/lib/fpu64\libc-musl.a(__fmt_a.o)
 .debug_line    0x000000000000b23c      0x25e c:/program files/microchip/xc32/v4.30/bin/bin/../../lib/gcc/pic32mx/8.3.1/../../../../pic32mx/lib/fpu64\libc-musl.a(__fmt_d.o)
 .debug_line    0x000000000000b49a      0x6dd c:/program files/microchip/xc32/v4.30/bin/bin/../../lib/gcc/pic32mx/8.3.1/../../../../pic32mx/lib/fpu64\libc-musl.a(__fmt_fp.o)
 .debug_line    0x000000000000bb77      0x20f c:/program files/microchip/xc32/v4.30/bin/bin/../../lib/gcc/pic32mx/8.3.1/../../../../pic32mx/lib/fpu64\libc-musl.a(__fmt_o.o)
 .debug_line    0x000000000000bd86      0x25d c:/program files/microchip/xc32/v4.30/bin/bin/../../lib/gcc/pic32mx/8.3.1/../../../../pic32mx/lib/fpu64\libc-musl.a(__fmt_s.o)
 .debug_line    0x000000000000bfe3      0x1e8 c:/program files/microchip/xc32/v4.30/bin/bin/../../lib/gcc/pic32mx/8.3.1/../../../../pic32mx/lib/fpu64\libc-musl.a(__fmt_u.o)
 .debug_line    0x000000000000c1cb      0x330 c:/program files/microchip/xc32/v4.30/bin/bin/../../lib/gcc/pic32mx/8.3.1/../../../../pic32mx/lib/fpu64\libc-musl.a(__fmt_x.o)
 .debug_line    0x000000000000c4fb       0xd0 c:/program files/microchip/xc32/v4.30/bin/bin/../../lib/gcc/pic32mx/8.3.1/../../../../pic32mx/lib/fpu64\libc-musl.a(__init_stdio.o)
 .debug_line    0x000000000000c5cb       0xc4 c:/program files/microchip/xc32/v4.30/bin/bin/../../lib/gcc/pic32mx/8.3.1/../../../../pic32mx/lib/fpu64\libc-musl.a(__io_file_needed.o)
 .debug_line    0x000000000000c68f      0x1c1 c:/program files/microchip/xc32/v4.30/bin/bin/../../lib/gcc/pic32mx/8.3.1/../../../../pic32mx/lib/fpu64\libc-musl.a(toupper.o)
 .debug_line    0x000000000000c850      0x242 c:/program files/microchip/xc32/v4.30/bin/bin/../../lib/gcc/pic32mx/8.3.1/../../../../pic32mx/lib/fpu64\libc-musl.a(__cvt_u.o)
 .debug_line    0x000000000000ca92      0x18d c:/program files/microchip/xc32/v4.30/bin/bin/../../lib/gcc/pic32mx/8.3.1/../../../../pic32mx/lib/fpu64\libm-musl.a(floor.o)
 .debug_line    0x000000000000cc1f      0x697 c:/program files/microchip/xc32/v4.30/bin/bin/../../lib/gcc/pic32mx/8.3.1/../../../../pic32mx/lib/fpu64\libm-musl.a(fma.o)
 .debug_line    0x000000000000d2b6      0x18d c:/program files/microchip/xc32/v4.30/bin/bin/../../lib/gcc/pic32mx/8.3.1/../../../../pic32mx/lib/fpu64\libm-musl.a(scalbn.o)
 .debug_line    0x000000000000d443       0xe4 c:/program files/microchip/xc32/v4.30/bin/bin/../../lib/gcc/pic32mx/8.3.1/fpu64\libgcc.a(_lshrdi3.o)
 .debug_line    0x000000000000d527       0xe5 c:/program files/microchip/xc32/v4.30/bin/bin/../../lib/gcc/pic32mx/8.3.1/fpu64\libgcc.a(_ashldi3.o)
 .debug_line    0x000000000000d60c      0x2e0 c:/program files/microchip/xc32/v4.30/bin/bin/../../lib/gcc/pic32mx/8.3.1/fpu64\libgcc.a(_udivdi3.o)
 .debug_line    0x000000000000d8ec      0x317 c:/program files/microchip/xc32/v4.30/bin/bin/../../lib/gcc/pic32mx/8.3.1/fpu64\libgcc.a(_umoddi3.o)
 .debug_line    0x000000000000dc03      0x1b0 c:/program files/microchip/xc32/v4.30/bin/bin/../../lib/gcc/pic32mx/8.3.1/../../../../pic32mx/lib/fpu64\libpic32.a(sbrk.o)
 .debug_line    0x000000000000ddb3       0x9a c:/program files/microchip/xc32/v4.30/bin/bin/../../lib/gcc/pic32mx/8.3.1/../../../../pic32mx/lib/fpu64\libpic32.a(_exit.o)
 .debug_line    0x000000000000de4d       0x9b c:/program files/microchip/xc32/v4.30/bin/bin/../../lib/gcc/pic32mx/8.3.1/../../../../pic32mx/lib/fpu64\libpic32.a(lseek.o)
 .debug_line    0x000000000000dee8       0x9b c:/program files/microchip/xc32/v4.30/bin/bin/../../lib/gcc/pic32mx/8.3.1/../../../../pic32mx/lib/fpu64\libpic32.a(close.o)
 .debug_line    0x000000000000df83        0x0 c:/program files/microchip/xc32/v4.30/bin/bin/../../lib/gcc/pic32mx/8.3.1/../../../../pic32mx/lib/fpu64\libpic32.a(errno.o)

.debug_frame    0x0000000000000000     0x2330
 *.elf(.debug_frame)
 *(.debug_frame)
 .debug_frame   0x0000000000000000       0x20 c:/program files/microchip/xc32/v4.30/bin/bin/../../lib/gcc/pic32mx/8.3.1/../../../../pic32mx/lib/fpu64\software-debug-break.o
 .debug_frame   0x0000000000000020      0x25c build/default/debug/_ext/1984157808/plib_cache.o
 .debug_frame   0x000000000000027c       0x20 build/default/debug/_ext/60165520/plib_clk.o
 .debug_frame   0x000000000000029c       0xe8 build/default/debug/_ext/1249264884/plib_coretimer.o
 .debug_frame   0x0000000000000384       0xd4 build/default/debug/_ext/1865200349/plib_evic.o
 .debug_frame   0x0000000000000458       0xa0 build/default/debug/_ext/1865254177/plib_gpio.o
 .debug_frame   0x00000000000004f8       0x58 build/default/debug/_ext/60179596/plib_ram.o
 .debug_frame   0x0000000000000550       0x80 build/default/debug/_ext/60184501/plib_wdt.o
 .debug_frame   0x00000000000005d0       0x30 build/default/debug/_ext/163028504/xc32_monitor.o
 .debug_frame   0x0000000000000600      0x188 build/default/debug/_ext/1014039709/sys_cache.o
 .debug_frame   0x0000000000000788       0x40 build/default/debug/_ext/14461671/sys_dma.o
 .debug_frame   0x00000000000007c8       0xa0 build/default/debug/_ext/1881668453/sys_int.o
 .debug_frame   0x0000000000000868       0x28 build/default/debug/_ext/1000052432/sys_reset.o
 .debug_frame   0x0000000000000890      0x544 build/default/debug/_ext/1171490990/interrupts.o
 .debug_frame   0x0000000000000dd4       0x2c build/default/debug/_ext/1171490990/initialization.o
 .debug_frame   0x0000000000000e00       0x20 build/default/debug/_ext/1171490990/tasks.o
 .debug_frame   0x0000000000000e20       0x70 build/default/debug/_ext/1171490990/exceptions.o
 .debug_frame   0x0000000000000e90       0x2c build/default/debug/heartbeat_timer.o
 .debug_frame   0x0000000000000ebc       0x2c build/default/debug/_ext/1360937237/main.o
 .debug_frame   0x0000000000000ee8      0x178 build/default/debug/_ext/1865657120/plib_uart3.o
 .debug_frame   0x0000000000001060       0x9c build/default/debug/_ext/1865585524/plib_rtcc.o
 .debug_frame   0x00000000000010fc       0xd8 build/default/debug/_ext/513455433/plib_i2c5_master.o
 .debug_frame   0x00000000000011d4      0x138 build/default/debug/_ext/1865161661/plib_dmac.o
 .debug_frame   0x000000000000130c      0x110 build/default/debug/usb_uart.o
 .debug_frame   0x000000000000141c       0x84 build/default/debug/usb_uart_rx_lookup_table.o
 .debug_frame   0x00000000000014a0      0x120 build/default/debug/terminal_control.o
 .debug_frame   0x00000000000015c0       0x20 c:/program files/microchip/xc32/v4.30/bin/bin/../../lib/gcc/pic32mx/8.3.1/../../../../pic32mx/lib/fpu64\libpic32.a(default-on-reset.o)
 .debug_frame   0x00000000000015e0       0x20 c:/program files/microchip/xc32/v4.30/bin/bin/../../lib/gcc/pic32mx/8.3.1/../../../../pic32mx/lib/fpu64\libpic32.a(default-on-bootstrap.o)
 .debug_frame   0x0000000000001600       0x20 c:/program files/microchip/xc32/v4.30/bin/bin/../../lib/gcc/pic32mx/8.3.1/../../../../pic32mx/lib/fpu64\libpic32.a(defaultinterrupt.o)
 .debug_frame   0x0000000000001620       0x58 c:/program files/microchip/xc32/v4.30/bin/bin/../../lib/gcc/pic32mx/8.3.1/../../../../pic32mx/lib/fpu64\libc-musl.a(exit.o)
 .debug_frame   0x0000000000001678      0x168 c:/program files/microchip/xc32/v4.30/bin/bin/../../lib/gcc/pic32mx/8.3.1/../../../../pic32mx/lib/fpu64\libc-musl.a(malloc.o)
 .debug_frame   0x00000000000017e0       0x2c c:/program files/microchip/xc32/v4.30/bin/bin/../../lib/gcc/pic32mx/8.3.1/../../../../pic32mx/lib/fpu64\libc-musl.a(expand_heap.o)
 .debug_frame   0x000000000000180c       0x2c c:/program files/microchip/xc32/v4.30/bin/bin/../../lib/gcc/pic32mx/8.3.1/../../../../pic32mx/lib/fpu64\libc-musl.a(printf.o)
 .debug_frame   0x0000000000001838       0x2c c:/program files/microchip/xc32/v4.30/bin/bin/../../lib/gcc/pic32mx/8.3.1/../../../../pic32mx/lib/fpu64\libc-musl.a(puts.o)
 .debug_frame   0x0000000000001864       0x2c c:/program files/microchip/xc32/v4.30/bin/bin/../../lib/gcc/pic32mx/8.3.1/../../../../pic32mx/lib/fpu64\libc-musl.a(sprintf.o)
 .debug_frame   0x0000000000001890       0x2c c:/program files/microchip/xc32/v4.30/bin/bin/../../lib/gcc/pic32mx/8.3.1/../../../../pic32mx/lib/fpu64\libc-musl.a(vsprintf.o)
 .debug_frame   0x00000000000018bc       0x2c c:/program files/microchip/xc32/v4.30/bin/bin/../../lib/gcc/pic32mx/8.3.1/../../../../pic32mx/lib/fpu64\libc-musl.a(strcat.o)
 .debug_frame   0x00000000000018e8       0x2c c:/program files/microchip/xc32/v4.30/bin/bin/../../lib/gcc/pic32mx/8.3.1/../../../../pic32mx/lib/fpu64\libc-musl.a(strncpy.o)
 .debug_frame   0x0000000000001914       0x34 c:/program files/microchip/xc32/v4.30/bin/bin/../../lib/gcc/pic32mx/8.3.1/../../../../pic32mx/lib/fpu64\libc-musl.a(strtok.o)
 .debug_frame   0x0000000000001948       0x28 c:/program files/microchip/xc32/v4.30/bin/bin/../../lib/gcc/pic32mx/8.3.1/../../../../pic32mx/lib/fpu64\libc-musl.a(_Exit.o)
 .debug_frame   0x0000000000001970       0x30 c:/program files/microchip/xc32/v4.30/bin/bin/../../lib/gcc/pic32mx/8.3.1/../../../../pic32mx/lib/fpu64\libc-musl.a(fputs.o)
 .debug_frame   0x00000000000019a0       0x50 c:/program files/microchip/xc32/v4.30/bin/bin/../../lib/gcc/pic32mx/8.3.1/../../../../pic32mx/lib/fpu64\libc-musl.a(fwrite.o)
 .debug_frame   0x00000000000019f0       0x64 c:/program files/microchip/xc32/v4.30/bin/bin/../../lib/gcc/pic32mx/8.3.1/../../../../pic32mx/lib/fpu64\libc-musl.a(putc.o)
 .debug_frame   0x0000000000001a54       0x48 c:/program files/microchip/xc32/v4.30/bin/bin/../../lib/gcc/pic32mx/8.3.1/../../../../pic32mx/lib/fpu64\libc-musl.a(vfprintf.o)
 .debug_frame   0x0000000000001a9c       0x38 c:/program files/microchip/xc32/v4.30/bin/bin/../../lib/gcc/pic32mx/8.3.1/../../../../pic32mx/lib/fpu64\libc-musl.a(vsnprintf.o)
 .debug_frame   0x0000000000001ad4       0x4c c:/program files/microchip/xc32/v4.30/bin/bin/../../lib/gcc/pic32mx/8.3.1/../../../../pic32mx/lib/fpu64\libc-musl.a(stdout.o)
 .debug_frame   0x0000000000001b20       0x20 c:/program files/microchip/xc32/v4.30/bin/bin/../../lib/gcc/pic32mx/8.3.1/../../../../pic32mx/lib/fpu64\libc-musl.a(stpncpy.o)
 .debug_frame   0x0000000000001b40       0x30 c:/program files/microchip/xc32/v4.30/bin/bin/../../lib/gcc/pic32mx/8.3.1/../../../../pic32mx/lib/fpu64\libc-musl.a(strcspn.o)
 .debug_frame   0x0000000000001b70       0x34 c:/program files/microchip/xc32/v4.30/bin/bin/../../lib/gcc/pic32mx/8.3.1/../../../../pic32mx/lib/fpu64\libc-musl.a(strspn.o)
 .debug_frame   0x0000000000001ba4       0x2c c:/program files/microchip/xc32/v4.30/bin/bin/../../lib/gcc/pic32mx/8.3.1/../../../../pic32mx/lib/fpu64\libc-musl.a(__io_fmt_needed.o)
 .debug_frame   0x0000000000001bd0       0x48 c:/program files/microchip/xc32/v4.30/bin/bin/../../lib/gcc/pic32mx/8.3.1/../../../../pic32mx/lib/fpu64\libc-musl.a(__io_init_needed.o)
 .debug_frame   0x0000000000001c18       0x50 c:/program files/microchip/xc32/v4.30/bin/bin/../../lib/gcc/pic32mx/8.3.1/../../../../pic32mx/lib/fpu64\libc-musl.a(__out.o)
 .debug_frame   0x0000000000001c68       0x20 c:/program files/microchip/xc32/v4.30/bin/bin/../../lib/gcc/pic32mx/8.3.1/../../../../pic32mx/lib/fpu64\libc-musl.a(__pop_float.o)
 .debug_frame   0x0000000000001c88       0x20 c:/program files/microchip/xc32/v4.30/bin/bin/../../lib/gcc/pic32mx/8.3.1/../../../../pic32mx/lib/fpu64\libc-musl.a(__pop_int.o)
 .debug_frame   0x0000000000001ca8       0x20 c:/program files/microchip/xc32/v4.30/bin/bin/../../lib/gcc/pic32mx/8.3.1/../../../../pic32mx/lib/fpu64\libc-musl.a(__pop_ptr.o)
 .debug_frame   0x0000000000001cc8       0xc8 c:/program files/microchip/xc32/v4.30/bin/bin/../../lib/gcc/pic32mx/8.3.1/../../../../pic32mx/lib/fpu64\libc-musl.a(__printf_core.o)
 .debug_frame   0x0000000000001d90       0x50 c:/program files/microchip/xc32/v4.30/bin/bin/../../lib/gcc/pic32mx/8.3.1/../../../../pic32mx/lib/fpu64\libc-musl.a(__stdio_close.o)
 .debug_frame   0x0000000000001de0       0x20 c:/program files/microchip/xc32/v4.30/bin/bin/../../lib/gcc/pic32mx/8.3.1/../../../../pic32mx/lib/fpu64\libc-musl.a(atoi.o)
 .debug_frame   0x0000000000001e00       0x30 c:/program files/microchip/xc32/v4.30/bin/bin/../../lib/gcc/pic32mx/8.3.1/../../../../pic32mx/lib/fpu64\libc-musl.a(strchrnul.o)
 .debug_frame   0x0000000000001e30       0x3c c:/program files/microchip/xc32/v4.30/bin/bin/../../lib/gcc/pic32mx/8.3.1/../../../../pic32mx/lib/fpu64\libc-musl.a(tolower.o)
 .debug_frame   0x0000000000001e6c       0x54 c:/program files/microchip/xc32/v4.30/bin/bin/../../lib/gcc/pic32mx/8.3.1/../../../../pic32mx/lib/fpu64\libc-musl.a(__fmt_a.o)
 .debug_frame   0x0000000000001ec0       0x38 c:/program files/microchip/xc32/v4.30/bin/bin/../../lib/gcc/pic32mx/8.3.1/../../../../pic32mx/lib/fpu64\libc-musl.a(__fmt_d.o)
 .debug_frame   0x0000000000001ef8       0x4c c:/program files/microchip/xc32/v4.30/bin/bin/../../lib/gcc/pic32mx/8.3.1/../../../../pic32mx/lib/fpu64\libc-musl.a(__fmt_fp.o)
 .debug_frame   0x0000000000001f44       0x34 c:/program files/microchip/xc32/v4.30/bin/bin/../../lib/gcc/pic32mx/8.3.1/../../../../pic32mx/lib/fpu64\libc-musl.a(__fmt_o.o)
 .debug_frame   0x0000000000001f78       0x34 c:/program files/microchip/xc32/v4.30/bin/bin/../../lib/gcc/pic32mx/8.3.1/../../../../pic32mx/lib/fpu64\libc-musl.a(__fmt_s.o)
 .debug_frame   0x0000000000001fac       0x34 c:/program files/microchip/xc32/v4.30/bin/bin/../../lib/gcc/pic32mx/8.3.1/../../../../pic32mx/lib/fpu64\libc-musl.a(__fmt_u.o)
 .debug_frame   0x0000000000001fe0       0x40 c:/program files/microchip/xc32/v4.30/bin/bin/../../lib/gcc/pic32mx/8.3.1/../../../../pic32mx/lib/fpu64\libc-musl.a(__fmt_x.o)
 .debug_frame   0x0000000000002020       0x3c c:/program files/microchip/xc32/v4.30/bin/bin/../../lib/gcc/pic32mx/8.3.1/../../../../pic32mx/lib/fpu64\libc-musl.a(__init_stdio.o)
 .debug_frame   0x000000000000205c       0x2c c:/program files/microchip/xc32/v4.30/bin/bin/../../lib/gcc/pic32mx/8.3.1/../../../../pic32mx/lib/fpu64\libc-musl.a(__io_file_needed.o)
 .debug_frame   0x0000000000002088       0x3c c:/program files/microchip/xc32/v4.30/bin/bin/../../lib/gcc/pic32mx/8.3.1/../../../../pic32mx/lib/fpu64\libc-musl.a(toupper.o)
 .debug_frame   0x00000000000020c4       0x40 c:/program files/microchip/xc32/v4.30/bin/bin/../../lib/gcc/pic32mx/8.3.1/../../../../pic32mx/lib/fpu64\libc-musl.a(__cvt_u.o)
 .debug_frame   0x0000000000002104       0x2c c:/program files/microchip/xc32/v4.30/bin/bin/../../lib/gcc/pic32mx/8.3.1/../../../../pic32mx/lib/fpu64\libm-musl.a(floor.o)
 .debug_frame   0x0000000000002130       0x64 c:/program files/microchip/xc32/v4.30/bin/bin/../../lib/gcc/pic32mx/8.3.1/../../../../pic32mx/lib/fpu64\libm-musl.a(fma.o)
 .debug_frame   0x0000000000002194       0x20 c:/program files/microchip/xc32/v4.30/bin/bin/../../lib/gcc/pic32mx/8.3.1/../../../../pic32mx/lib/fpu64\libm-musl.a(scalbn.o)
 .debug_frame   0x00000000000021b4       0x20 c:/program files/microchip/xc32/v4.30/bin/bin/../../lib/gcc/pic32mx/8.3.1/fpu64\libgcc.a(_lshrdi3.o)
 .debug_frame   0x00000000000021d4       0x20 c:/program files/microchip/xc32/v4.30/bin/bin/../../lib/gcc/pic32mx/8.3.1/fpu64\libgcc.a(_ashldi3.o)
 .debug_frame   0x00000000000021f4       0x20 c:/program files/microchip/xc32/v4.30/bin/bin/../../lib/gcc/pic32mx/8.3.1/fpu64\libgcc.a(_udivdi3.o)
 .debug_frame   0x0000000000002214       0x20 c:/program files/microchip/xc32/v4.30/bin/bin/../../lib/gcc/pic32mx/8.3.1/fpu64\libgcc.a(_umoddi3.o)
 .debug_frame   0x0000000000002234       0x9c c:/program files/microchip/xc32/v4.30/bin/bin/../../lib/gcc/pic32mx/8.3.1/../../../../pic32mx/lib/fpu64\libpic32.a(sbrk.o)
 .debug_frame   0x00000000000022d0       0x20 c:/program files/microchip/xc32/v4.30/bin/bin/../../lib/gcc/pic32mx/8.3.1/../../../../pic32mx/lib/fpu64\libpic32.a(_exit.o)
 .debug_frame   0x00000000000022f0       0x20 c:/program files/microchip/xc32/v4.30/bin/bin/../../lib/gcc/pic32mx/8.3.1/../../../../pic32mx/lib/fpu64\libpic32.a(lseek.o)
 .debug_frame   0x0000000000002310       0x20 c:/program files/microchip/xc32/v4.30/bin/bin/../../lib/gcc/pic32mx/8.3.1/../../../../pic32mx/lib/fpu64\libpic32.a(close.o)

.debug_str      0x0000000000000000    0x169ca
 *.elf(.debug_str)
 *(.debug_str)
 .debug_str     0x0000000000000000      0x370 c:/program files/microchip/xc32/v4.30/bin/bin/../../lib/gcc/pic32mx/8.3.1/../../../../pic32mx/lib/fpu64\software-debug-break.o
 .debug_str     0x0000000000000370      0x787 build/default/debug/_ext/1984157808/plib_cache.o
 .debug_str     0x0000000000000af7      0x533 build/default/debug/_ext/60165520/plib_clk.o
 .debug_str     0x000000000000102a      0x5ce build/default/debug/_ext/1249264884/plib_coretimer.o
 .debug_str     0x00000000000015f8      0x4f0 build/default/debug/_ext/1865200349/plib_evic.o
 .debug_str     0x0000000000001ae8      0x58e build/default/debug/_ext/1865254177/plib_gpio.o
 .debug_str     0x0000000000002076      0x3f0 build/default/debug/_ext/60179596/plib_ram.o
 .debug_str     0x0000000000002466      0x444 build/default/debug/_ext/60184501/plib_wdt.o
 .debug_str     0x00000000000028aa      0x334 build/default/debug/_ext/163028504/xc32_monitor.o
 .debug_str     0x0000000000002bde      0x584 build/default/debug/_ext/1014039709/sys_cache.o
 .debug_str     0x0000000000003162      0x64b build/default/debug/_ext/14461671/sys_dma.o
 .debug_str     0x00000000000037ad      0x492 build/default/debug/_ext/1881668453/sys_int.o
 .debug_str     0x0000000000003c3f      0x3ad build/default/debug/_ext/1000052432/sys_reset.o
 .debug_str     0x0000000000003fec      0x4f5 build/default/debug/_ext/1171490990/interrupts.o
 .debug_str     0x00000000000044e1      0x4fc build/default/debug/_ext/1171490990/initialization.o
 .debug_str     0x00000000000049dd      0x37f build/default/debug/_ext/1171490990/tasks.o
 .debug_str     0x0000000000004d5c      0x426 build/default/debug/_ext/1171490990/exceptions.o
 .debug_str     0x0000000000005182      0x3bf build/default/debug/heartbeat_timer.o
 .debug_str     0x0000000000005541      0x442 build/default/debug/_ext/1360937237/main.o
 .debug_str     0x0000000000005983      0x71a build/default/debug/_ext/1865657120/plib_uart3.o
 .debug_str     0x000000000000609d      0x784 build/default/debug/_ext/1865585524/plib_rtcc.o
 .debug_str     0x0000000000006821      0x7ef build/default/debug/_ext/513455433/plib_i2c5_master.o
 .debug_str     0x0000000000007010      0x9be build/default/debug/_ext/1865161661/plib_dmac.o
 .debug_str     0x00000000000079ce      0xbe9 build/default/debug/usb_uart.o
 .debug_str     0x00000000000085b7      0x5e0 build/default/debug/usb_uart_rx_lookup_table.o
 .debug_str     0x0000000000008b97      0x49b build/default/debug/terminal_control.o
 .debug_str     0x0000000000009032       0xe6 C:\Users\drewm\AppData\Local\Temp\ccEOzkaJ.o
 .debug_str     0x0000000000009118      0x35a c:/program files/microchip/xc32/v4.30/bin/bin/../../lib/gcc/pic32mx/8.3.1/../../../../pic32mx/lib/fpu64\libpic32.a(default-on-reset.o)
 .debug_str     0x0000000000009472      0x362 c:/program files/microchip/xc32/v4.30/bin/bin/../../lib/gcc/pic32mx/8.3.1/../../../../pic32mx/lib/fpu64\libpic32.a(default-on-bootstrap.o)
 .debug_str     0x00000000000097d4      0x374 c:/program files/microchip/xc32/v4.30/bin/bin/../../lib/gcc/pic32mx/8.3.1/../../../../pic32mx/lib/fpu64\libpic32.a(defaultinterrupt.o)
 .debug_str     0x0000000000009b48      0x3bc c:/program files/microchip/xc32/v4.30/bin/bin/../../lib/gcc/pic32mx/8.3.1/../../../../pic32mx/lib/fpu64\libc-musl.a(exit.o)
 .debug_str     0x0000000000009f04      0x59f c:/program files/microchip/xc32/v4.30/bin/bin/../../lib/gcc/pic32mx/8.3.1/../../../../pic32mx/lib/fpu64\libc-musl.a(malloc.o)
 .debug_str     0x000000000000a4a3      0x39e c:/program files/microchip/xc32/v4.30/bin/bin/../../lib/gcc/pic32mx/8.3.1/../../../../pic32mx/lib/fpu64\libc-musl.a(expand_heap.o)
 .debug_str     0x000000000000a841      0x34b c:/program files/microchip/xc32/v4.30/bin/bin/../../lib/gcc/pic32mx/8.3.1/../../../../pic32mx/lib/fpu64\libc-musl.a(printf.o)
 .debug_str     0x000000000000ab8c      0x43d c:/program files/microchip/xc32/v4.30/bin/bin/../../lib/gcc/pic32mx/8.3.1/../../../../pic32mx/lib/fpu64\libc-musl.a(puts.o)
 .debug_str     0x000000000000afc9      0x337 c:/program files/microchip/xc32/v4.30/bin/bin/../../lib/gcc/pic32mx/8.3.1/../../../../pic32mx/lib/fpu64\libc-musl.a(sprintf.o)
 .debug_str     0x000000000000b300      0x33a c:/program files/microchip/xc32/v4.30/bin/bin/../../lib/gcc/pic32mx/8.3.1/../../../../pic32mx/lib/fpu64\libc-musl.a(vsprintf.o)
 .debug_str     0x000000000000b63a      0x31d c:/program files/microchip/xc32/v4.30/bin/bin/../../lib/gcc/pic32mx/8.3.1/../../../../pic32mx/lib/fpu64\libc-musl.a(strcat.o)
 .debug_str     0x000000000000b957      0x31d c:/program files/microchip/xc32/v4.30/bin/bin/../../lib/gcc/pic32mx/8.3.1/../../../../pic32mx/lib/fpu64\libc-musl.a(strncpy.o)
 .debug_str     0x000000000000bc74      0x319 c:/program files/microchip/xc32/v4.30/bin/bin/../../lib/gcc/pic32mx/8.3.1/../../../../pic32mx/lib/fpu64\libc-musl.a(strtok.o)
 .debug_str     0x000000000000bf8d      0x32f c:/program files/microchip/xc32/v4.30/bin/bin/../../lib/gcc/pic32mx/8.3.1/../../../../pic32mx/lib/fpu64\libc-musl.a(_Exit.o)
 .debug_str     0x000000000000c2bc      0x440 c:/program files/microchip/xc32/v4.30/bin/bin/../../lib/gcc/pic32mx/8.3.1/../../../../pic32mx/lib/fpu64\libc-musl.a(libc.o)
 .debug_str     0x000000000000c6fc      0x431 c:/program files/microchip/xc32/v4.30/bin/bin/../../lib/gcc/pic32mx/8.3.1/../../../../pic32mx/lib/fpu64\libc-musl.a(fputs.o)
 .debug_str     0x000000000000cb2d      0x3cc c:/program files/microchip/xc32/v4.30/bin/bin/../../lib/gcc/pic32mx/8.3.1/../../../../pic32mx/lib/fpu64\libc-musl.a(fwrite.o)
 .debug_str     0x000000000000cef9      0x3e3 c:/program files/microchip/xc32/v4.30/bin/bin/../../lib/gcc/pic32mx/8.3.1/../../../../pic32mx/lib/fpu64\libc-musl.a(putc.o)
 .debug_str     0x000000000000d2dc      0x47b c:/program files/microchip/xc32/v4.30/bin/bin/../../lib/gcc/pic32mx/8.3.1/../../../../pic32mx/lib/fpu64\libc-musl.a(vfprintf.o)
 .debug_str     0x000000000000d757      0x477 c:/program files/microchip/xc32/v4.30/bin/bin/../../lib/gcc/pic32mx/8.3.1/../../../../pic32mx/lib/fpu64\libc-musl.a(vsnprintf.o)
 .debug_str     0x000000000000dbce      0x493 c:/program files/microchip/xc32/v4.30/bin/bin/../../lib/gcc/pic32mx/8.3.1/../../../../pic32mx/lib/fpu64\libc-musl.a(stdout.o)
 .debug_str     0x000000000000e061      0x337 c:/program files/microchip/xc32/v4.30/bin/bin/../../lib/gcc/pic32mx/8.3.1/../../../../pic32mx/lib/fpu64\libc-musl.a(stpncpy.o)
 .debug_str     0x000000000000e398      0x32e c:/program files/microchip/xc32/v4.30/bin/bin/../../lib/gcc/pic32mx/8.3.1/../../../../pic32mx/lib/fpu64\libc-musl.a(strcspn.o)
 .debug_str     0x000000000000e6c6      0x331 c:/program files/microchip/xc32/v4.30/bin/bin/../../lib/gcc/pic32mx/8.3.1/../../../../pic32mx/lib/fpu64\libc-musl.a(strspn.o)
 .debug_str     0x000000000000e9f7      0x42f c:/program files/microchip/xc32/v4.30/bin/bin/../../lib/gcc/pic32mx/8.3.1/../../../../pic32mx/lib/fpu64\libc-musl.a(__io_fmt_needed.o)
 .debug_str     0x000000000000ee26      0x3cd c:/program files/microchip/xc32/v4.30/bin/bin/../../lib/gcc/pic32mx/8.3.1/../../../../pic32mx/lib/fpu64\libc-musl.a(__io_init_needed.o)
 .debug_str     0x000000000000f1f3      0x3d3 c:/program files/microchip/xc32/v4.30/bin/bin/../../lib/gcc/pic32mx/8.3.1/../../../../pic32mx/lib/fpu64\libc-musl.a(__out.o)
 .debug_str     0x000000000000f5c6      0x3bc c:/program files/microchip/xc32/v4.30/bin/bin/../../lib/gcc/pic32mx/8.3.1/../../../../pic32mx/lib/fpu64\libc-musl.a(__pop_float.o)
 .debug_str     0x000000000000f982      0x3c7 c:/program files/microchip/xc32/v4.30/bin/bin/../../lib/gcc/pic32mx/8.3.1/../../../../pic32mx/lib/fpu64\libc-musl.a(__pop_int.o)
 .debug_str     0x000000000000fd49      0x3c9 c:/program files/microchip/xc32/v4.30/bin/bin/../../lib/gcc/pic32mx/8.3.1/../../../../pic32mx/lib/fpu64\libc-musl.a(__pop_ptr.o)
 .debug_str     0x0000000000010112      0x4dd c:/program files/microchip/xc32/v4.30/bin/bin/../../lib/gcc/pic32mx/8.3.1/../../../../pic32mx/lib/fpu64\libc-musl.a(__printf_core.o)
 .debug_str     0x00000000000105ef      0x456 c:/program files/microchip/xc32/v4.30/bin/bin/../../lib/gcc/pic32mx/8.3.1/../../../../pic32mx/lib/fpu64\libc-musl.a(__stdio_close.o)
 .debug_str     0x0000000000010a45      0x327 c:/program files/microchip/xc32/v4.30/bin/bin/../../lib/gcc/pic32mx/8.3.1/../../../../pic32mx/lib/fpu64\libc-musl.a(atoi.o)
 .debug_str     0x0000000000010d6c      0x38f c:/program files/microchip/xc32/v4.30/bin/bin/../../lib/gcc/pic32mx/8.3.1/../../../../pic32mx/lib/fpu64\libc-musl.a(strchrnul.o)
 .debug_str     0x00000000000110fb      0x354 c:/program files/microchip/xc32/v4.30/bin/bin/../../lib/gcc/pic32mx/8.3.1/../../../../pic32mx/lib/fpu64\libc-musl.a(tolower.o)
 .debug_str     0x000000000001144f      0x42c c:/program files/microchip/xc32/v4.30/bin/bin/../../lib/gcc/pic32mx/8.3.1/../../../../pic32mx/lib/fpu64\libc-musl.a(__fmt_a.o)
 .debug_str     0x000000000001187b      0x3ee c:/program files/microchip/xc32/v4.30/bin/bin/../../lib/gcc/pic32mx/8.3.1/../../../../pic32mx/lib/fpu64\libc-musl.a(__fmt_d.o)
 .debug_str     0x0000000000011c69      0x44d c:/program files/microchip/xc32/v4.30/bin/bin/../../lib/gcc/pic32mx/8.3.1/../../../../pic32mx/lib/fpu64\libc-musl.a(__fmt_fp.o)
 .debug_str     0x00000000000120b6      0x3ee c:/program files/microchip/xc32/v4.30/bin/bin/../../lib/gcc/pic32mx/8.3.1/../../../../pic32mx/lib/fpu64\libc-musl.a(__fmt_o.o)
 .debug_str     0x00000000000124a4      0x3da c:/program files/microchip/xc32/v4.30/bin/bin/../../lib/gcc/pic32mx/8.3.1/../../../../pic32mx/lib/fpu64\libc-musl.a(__fmt_s.o)
 .debug_str     0x000000000001287e      0x3ee c:/program files/microchip/xc32/v4.30/bin/bin/../../lib/gcc/pic32mx/8.3.1/../../../../pic32mx/lib/fpu64\libc-musl.a(__fmt_u.o)
 .debug_str     0x0000000000012c6c      0x3ee c:/program files/microchip/xc32/v4.30/bin/bin/../../lib/gcc/pic32mx/8.3.1/../../../../pic32mx/lib/fpu64\libc-musl.a(__fmt_x.o)
 .debug_str     0x000000000001305a      0x393 c:/program files/microchip/xc32/v4.30/bin/bin/../../lib/gcc/pic32mx/8.3.1/../../../../pic32mx/lib/fpu64\libc-musl.a(__init_stdio.o)
 .debug_str     0x00000000000133ed      0x3a0 c:/program files/microchip/xc32/v4.30/bin/bin/../../lib/gcc/pic32mx/8.3.1/../../../../pic32mx/lib/fpu64\libc-musl.a(__io_file_needed.o)
 .debug_str     0x000000000001378d      0x354 c:/program files/microchip/xc32/v4.30/bin/bin/../../lib/gcc/pic32mx/8.3.1/../../../../pic32mx/lib/fpu64\libc-musl.a(toupper.o)
 .debug_str     0x0000000000013ae1      0x3aa c:/program files/microchip/xc32/v4.30/bin/bin/../../lib/gcc/pic32mx/8.3.1/../../../../pic32mx/lib/fpu64\libc-musl.a(__cvt_u.o)
 .debug_str     0x0000000000013e8b      0x387 c:/program files/microchip/xc32/v4.30/bin/bin/../../lib/gcc/pic32mx/8.3.1/../../../../pic32mx/lib/fpu64\libm-musl.a(floor.o)
 .debug_str     0x0000000000014212      0x3bf c:/program files/microchip/xc32/v4.30/bin/bin/../../lib/gcc/pic32mx/8.3.1/../../../../pic32mx/lib/fpu64\libm-musl.a(fma.o)
 .debug_str     0x00000000000145d1      0x377 c:/program files/microchip/xc32/v4.30/bin/bin/../../lib/gcc/pic32mx/8.3.1/../../../../pic32mx/lib/fpu64\libm-musl.a(scalbn.o)
 .debug_str     0x0000000000014948      0x3da c:/program files/microchip/xc32/v4.30/bin/bin/../../lib/gcc/pic32mx/8.3.1/fpu64\libgcc.a(_lshrdi3.o)
 .debug_str     0x0000000000014d22      0x3da c:/program files/microchip/xc32/v4.30/bin/bin/../../lib/gcc/pic32mx/8.3.1/fpu64\libgcc.a(_ashldi3.o)
 .debug_str     0x00000000000150fc      0x417 c:/program files/microchip/xc32/v4.30/bin/bin/../../lib/gcc/pic32mx/8.3.1/fpu64\libgcc.a(_udivdi3.o)
 .debug_str     0x0000000000015513      0x417 c:/program files/microchip/xc32/v4.30/bin/bin/../../lib/gcc/pic32mx/8.3.1/fpu64\libgcc.a(_umoddi3.o)
 .debug_str     0x000000000001592a      0x37a c:/program files/microchip/xc32/v4.30/bin/bin/../../lib/gcc/pic32mx/8.3.1/../../../../pic32mx/lib/fpu64\libpic32.a(sbrk.o)
 .debug_str     0x0000000000015ca4      0x34b c:/program files/microchip/xc32/v4.30/bin/bin/../../lib/gcc/pic32mx/8.3.1/../../../../pic32mx/lib/fpu64\libpic32.a(_exit.o)
 .debug_str     0x0000000000015fef      0x34b c:/program files/microchip/xc32/v4.30/bin/bin/../../lib/gcc/pic32mx/8.3.1/../../../../pic32mx/lib/fpu64\libpic32.a(lseek.o)
 .debug_str     0x000000000001633a      0x34b c:/program files/microchip/xc32/v4.30/bin/bin/../../lib/gcc/pic32mx/8.3.1/../../../../pic32mx/lib/fpu64\libpic32.a(close.o)
 .debug_str     0x0000000000016685      0x345 c:/program files/microchip/xc32/v4.30/bin/bin/../../lib/gcc/pic32mx/8.3.1/../../../../pic32mx/lib/fpu64\libpic32.a(errno.o)

.debug_loc      0x0000000000000000     0xa856
 *.elf(.debug_loc)
 *(.debug_loc)
 .debug_loc     0x0000000000000000      0x620 build/default/debug/_ext/1984157808/plib_cache.o
 .debug_loc     0x0000000000000620      0x202 build/default/debug/_ext/1249264884/plib_coretimer.o
 .debug_loc     0x0000000000000822      0x149 build/default/debug/_ext/1865200349/plib_evic.o
 .debug_loc     0x000000000000096b      0x172 build/default/debug/_ext/1865254177/plib_gpio.o
 .debug_loc     0x0000000000000add      0x1db build/default/debug/_ext/60179596/plib_ram.o
 .debug_loc     0x0000000000000cb8      0x368 build/default/debug/_ext/1014039709/sys_cache.o
 .debug_loc     0x0000000000001020      0x1de build/default/debug/_ext/1881668453/sys_int.o
 .debug_loc     0x00000000000011fe       0x20 build/default/debug/_ext/1000052432/sys_reset.o
 .debug_loc     0x000000000000121e      0x195 build/default/debug/_ext/1171490990/interrupts.o
 .debug_loc     0x00000000000013b3       0x51 build/default/debug/_ext/1171490990/initialization.o
 .debug_loc     0x0000000000001404       0x80 build/default/debug/_ext/1171490990/exceptions.o
 .debug_loc     0x0000000000001484       0x76 build/default/debug/heartbeat_timer.o
 .debug_loc     0x00000000000014fa       0x4b build/default/debug/_ext/1360937237/main.o
 .debug_loc     0x0000000000001545      0x4e7 build/default/debug/_ext/1865657120/plib_uart3.o
 .debug_loc     0x0000000000001a2c      0x5ff build/default/debug/_ext/1865585524/plib_rtcc.o
 .debug_loc     0x000000000000202b      0x3a2 build/default/debug/_ext/513455433/plib_i2c5_master.o
 .debug_loc     0x00000000000023cd      0xdc9 build/default/debug/_ext/1865161661/plib_dmac.o
 .debug_loc     0x0000000000003196      0xc17 build/default/debug/usb_uart.o
 .debug_loc     0x0000000000003dad      0x163 build/default/debug/usb_uart_rx_lookup_table.o
 .debug_loc     0x0000000000003f10      0x290 build/default/debug/terminal_control.o
 .debug_loc     0x00000000000041a0       0x61 c:/program files/microchip/xc32/v4.30/bin/bin/../../lib/gcc/pic32mx/8.3.1/../../../../pic32mx/lib/fpu64\libc-musl.a(exit.o)
 .debug_loc     0x0000000000004201      0xbe0 c:/program files/microchip/xc32/v4.30/bin/bin/../../lib/gcc/pic32mx/8.3.1/../../../../pic32mx/lib/fpu64\libc-musl.a(malloc.o)
 .debug_loc     0x0000000000004de1       0x4f c:/program files/microchip/xc32/v4.30/bin/bin/../../lib/gcc/pic32mx/8.3.1/../../../../pic32mx/lib/fpu64\libc-musl.a(expand_heap.o)
 .debug_loc     0x0000000000004e30       0x47 c:/program files/microchip/xc32/v4.30/bin/bin/../../lib/gcc/pic32mx/8.3.1/../../../../pic32mx/lib/fpu64\libc-musl.a(printf.o)
 .debug_loc     0x0000000000004e77       0x4a c:/program files/microchip/xc32/v4.30/bin/bin/../../lib/gcc/pic32mx/8.3.1/../../../../pic32mx/lib/fpu64\libc-musl.a(puts.o)
 .debug_loc     0x0000000000004ec1       0x5f c:/program files/microchip/xc32/v4.30/bin/bin/../../lib/gcc/pic32mx/8.3.1/../../../../pic32mx/lib/fpu64\libc-musl.a(sprintf.o)
 .debug_loc     0x0000000000004f20       0x89 c:/program files/microchip/xc32/v4.30/bin/bin/../../lib/gcc/pic32mx/8.3.1/../../../../pic32mx/lib/fpu64\libc-musl.a(vsprintf.o)
 .debug_loc     0x0000000000004fa9       0x60 c:/program files/microchip/xc32/v4.30/bin/bin/../../lib/gcc/pic32mx/8.3.1/../../../../pic32mx/lib/fpu64\libc-musl.a(strcat.o)
 .debug_loc     0x0000000000005009       0x79 c:/program files/microchip/xc32/v4.30/bin/bin/../../lib/gcc/pic32mx/8.3.1/../../../../pic32mx/lib/fpu64\libc-musl.a(strncpy.o)
 .debug_loc     0x0000000000005082       0x88 c:/program files/microchip/xc32/v4.30/bin/bin/../../lib/gcc/pic32mx/8.3.1/../../../../pic32mx/lib/fpu64\libc-musl.a(strtok.o)
 .debug_loc     0x000000000000510a       0x25 c:/program files/microchip/xc32/v4.30/bin/bin/../../lib/gcc/pic32mx/8.3.1/../../../../pic32mx/lib/fpu64\libc-musl.a(_Exit.o)
 .debug_loc     0x000000000000512f       0x86 c:/program files/microchip/xc32/v4.30/bin/bin/../../lib/gcc/pic32mx/8.3.1/../../../../pic32mx/lib/fpu64\libc-musl.a(fputs.o)
 .debug_loc     0x00000000000051b5      0x19f c:/program files/microchip/xc32/v4.30/bin/bin/../../lib/gcc/pic32mx/8.3.1/../../../../pic32mx/lib/fpu64\libc-musl.a(fwrite.o)
 .debug_loc     0x0000000000005354       0xdb c:/program files/microchip/xc32/v4.30/bin/bin/../../lib/gcc/pic32mx/8.3.1/../../../../pic32mx/lib/fpu64\libc-musl.a(putc.o)
 .debug_loc     0x000000000000542f       0x9f c:/program files/microchip/xc32/v4.30/bin/bin/../../lib/gcc/pic32mx/8.3.1/../../../../pic32mx/lib/fpu64\libc-musl.a(vfprintf.o)
 .debug_loc     0x00000000000054ce       0xef c:/program files/microchip/xc32/v4.30/bin/bin/../../lib/gcc/pic32mx/8.3.1/../../../../pic32mx/lib/fpu64\libc-musl.a(vsnprintf.o)
 .debug_loc     0x00000000000055bd       0xea c:/program files/microchip/xc32/v4.30/bin/bin/../../lib/gcc/pic32mx/8.3.1/../../../../pic32mx/lib/fpu64\libc-musl.a(stpncpy.o)
 .debug_loc     0x00000000000056a7       0xed c:/program files/microchip/xc32/v4.30/bin/bin/../../lib/gcc/pic32mx/8.3.1/../../../../pic32mx/lib/fpu64\libc-musl.a(strcspn.o)
 .debug_loc     0x0000000000005794       0xd3 c:/program files/microchip/xc32/v4.30/bin/bin/../../lib/gcc/pic32mx/8.3.1/../../../../pic32mx/lib/fpu64\libc-musl.a(strspn.o)
 .debug_loc     0x0000000000005867      0x1ab c:/program files/microchip/xc32/v4.30/bin/bin/../../lib/gcc/pic32mx/8.3.1/../../../../pic32mx/lib/fpu64\libc-musl.a(__out.o)
 .debug_loc     0x0000000000005a12       0x40 c:/program files/microchip/xc32/v4.30/bin/bin/../../lib/gcc/pic32mx/8.3.1/../../../../pic32mx/lib/fpu64\libc-musl.a(__pop_ptr.o)
 .debug_loc     0x0000000000005a52      0x56c c:/program files/microchip/xc32/v4.30/bin/bin/../../lib/gcc/pic32mx/8.3.1/../../../../pic32mx/lib/fpu64\libc-musl.a(__printf_core.o)
 .debug_loc     0x0000000000005fbe      0x130 c:/program files/microchip/xc32/v4.30/bin/bin/../../lib/gcc/pic32mx/8.3.1/../../../../pic32mx/lib/fpu64\libc-musl.a(__stdio_close.o)
 .debug_loc     0x00000000000060ee       0xbe c:/program files/microchip/xc32/v4.30/bin/bin/../../lib/gcc/pic32mx/8.3.1/../../../../pic32mx/lib/fpu64\libc-musl.a(atoi.o)
 .debug_loc     0x00000000000061ac       0xa8 c:/program files/microchip/xc32/v4.30/bin/bin/../../lib/gcc/pic32mx/8.3.1/../../../../pic32mx/lib/fpu64\libc-musl.a(strchrnul.o)
 .debug_loc     0x0000000000006254      0xb54 c:/program files/microchip/xc32/v4.30/bin/bin/../../lib/gcc/pic32mx/8.3.1/../../../../pic32mx/lib/fpu64\libc-musl.a(__fmt_a.o)
 .debug_loc     0x0000000000006da8      0x241 c:/program files/microchip/xc32/v4.30/bin/bin/../../lib/gcc/pic32mx/8.3.1/../../../../pic32mx/lib/fpu64\libc-musl.a(__fmt_d.o)
 .debug_loc     0x0000000000006fe9      0xcd4 c:/program files/microchip/xc32/v4.30/bin/bin/../../lib/gcc/pic32mx/8.3.1/../../../../pic32mx/lib/fpu64\libc-musl.a(__fmt_fp.o)
 .debug_loc     0x0000000000007cbd       0xf2 c:/program files/microchip/xc32/v4.30/bin/bin/../../lib/gcc/pic32mx/8.3.1/../../../../pic32mx/lib/fpu64\libc-musl.a(__fmt_o.o)
 .debug_loc     0x0000000000007daf      0x11f c:/program files/microchip/xc32/v4.30/bin/bin/../../lib/gcc/pic32mx/8.3.1/../../../../pic32mx/lib/fpu64\libc-musl.a(__fmt_s.o)
 .debug_loc     0x0000000000007ece       0xf2 c:/program files/microchip/xc32/v4.30/bin/bin/../../lib/gcc/pic32mx/8.3.1/../../../../pic32mx/lib/fpu64\libc-musl.a(__fmt_u.o)
 .debug_loc     0x0000000000007fc0      0x317 c:/program files/microchip/xc32/v4.30/bin/bin/../../lib/gcc/pic32mx/8.3.1/../../../../pic32mx/lib/fpu64\libc-musl.a(__fmt_x.o)
 .debug_loc     0x00000000000082d7      0x1fe c:/program files/microchip/xc32/v4.30/bin/bin/../../lib/gcc/pic32mx/8.3.1/../../../../pic32mx/lib/fpu64\libc-musl.a(__cvt_u.o)
 .debug_loc     0x00000000000084d5       0x7e c:/program files/microchip/xc32/v4.30/bin/bin/../../lib/gcc/pic32mx/8.3.1/../../../../pic32mx/lib/fpu64\libm-musl.a(floor.o)
 .debug_loc     0x0000000000008553      0xc8c c:/program files/microchip/xc32/v4.30/bin/bin/../../lib/gcc/pic32mx/8.3.1/../../../../pic32mx/lib/fpu64\libm-musl.a(fma.o)
 .debug_loc     0x00000000000091df      0x16e c:/program files/microchip/xc32/v4.30/bin/bin/../../lib/gcc/pic32mx/8.3.1/../../../../pic32mx/lib/fpu64\libm-musl.a(scalbn.o)
 .debug_loc     0x000000000000934d       0x99 c:/program files/microchip/xc32/v4.30/bin/bin/../../lib/gcc/pic32mx/8.3.1/fpu64\libgcc.a(_lshrdi3.o)
 .debug_loc     0x00000000000093e6       0x75 c:/program files/microchip/xc32/v4.30/bin/bin/../../lib/gcc/pic32mx/8.3.1/fpu64\libgcc.a(_ashldi3.o)
 .debug_loc     0x000000000000945b      0x9f5 c:/program files/microchip/xc32/v4.30/bin/bin/../../lib/gcc/pic32mx/8.3.1/fpu64\libgcc.a(_udivdi3.o)
 .debug_loc     0x0000000000009e50      0x99a c:/program files/microchip/xc32/v4.30/bin/bin/../../lib/gcc/pic32mx/8.3.1/fpu64\libgcc.a(_umoddi3.o)
 .debug_loc     0x000000000000a7ea       0x6c c:/program files/microchip/xc32/v4.30/bin/bin/../../lib/gcc/pic32mx/8.3.1/../../../../pic32mx/lib/fpu64\libpic32.a(sbrk.o)

.debug_macinfo
 *.elf(.debug_macinfo)
 *(.debug_macinfo)

.debug_weaknames
 *.elf(.debug_weaknames)
 *(.debug_weaknames)

.debug_funcnames
 *.elf(.debug_funcnames)
 *(.debug_funcnames)

.debug_typenames
 *.elf(.debug_typenames)
 *(.debug_typenames)

.debug_varnames
 *.elf(.debug_varnames)
 *(.debug_varnames)

.debug_pubtypes
 *.elf(.debug_pubtypes)
 *(.debug_pubtypes)

.debug_ranges   0x0000000000000000     0x1130
 *.elf(.debug_ranges)
 *(.debug_ranges)
 .debug_ranges  0x0000000000000000       0x10 c:/program files/microchip/xc32/v4.30/bin/bin/../../lib/gcc/pic32mx/8.3.1/../../../../pic32mx/lib/fpu64\software-debug-break.o
 .debug_ranges  0x0000000000000010       0xb0 build/default/debug/_ext/1984157808/plib_cache.o
 .debug_ranges  0x00000000000000c0       0x10 build/default/debug/_ext/60165520/plib_clk.o
 .debug_ranges  0x00000000000000d0       0x50 build/default/debug/_ext/1249264884/plib_coretimer.o
 .debug_ranges  0x0000000000000120       0x58 build/default/debug/_ext/1865200349/plib_evic.o
 .debug_ranges  0x0000000000000178       0x50 build/default/debug/_ext/1865254177/plib_gpio.o
 .debug_ranges  0x00000000000001c8       0x20 build/default/debug/_ext/60179596/plib_ram.o
 .debug_ranges  0x00000000000001e8       0x40 build/default/debug/_ext/60184501/plib_wdt.o
 .debug_ranges  0x0000000000000228       0x18 build/default/debug/_ext/163028504/xc32_monitor.o
 .debug_ranges  0x0000000000000240       0x70 build/default/debug/_ext/1014039709/sys_cache.o
 .debug_ranges  0x00000000000002b0       0x20 build/default/debug/_ext/14461671/sys_dma.o
 .debug_ranges  0x00000000000002d0       0x30 build/default/debug/_ext/1881668453/sys_int.o
 .debug_ranges  0x0000000000000300       0x10 build/default/debug/_ext/1000052432/sys_reset.o
 .debug_ranges  0x0000000000000310       0x50 build/default/debug/_ext/1171490990/interrupts.o
 .debug_ranges  0x0000000000000360       0x10 build/default/debug/_ext/1171490990/initialization.o
 .debug_ranges  0x0000000000000370       0x10 build/default/debug/_ext/1171490990/tasks.o
 .debug_ranges  0x0000000000000380       0x28 build/default/debug/_ext/1171490990/exceptions.o
 .debug_ranges  0x00000000000003a8       0x10 build/default/debug/heartbeat_timer.o
 .debug_ranges  0x00000000000003b8       0x28 build/default/debug/_ext/1360937237/main.o
 .debug_ranges  0x00000000000003e0       0xf8 build/default/debug/_ext/1865657120/plib_uart3.o
 .debug_ranges  0x00000000000004d8       0xf0 build/default/debug/_ext/1865585524/plib_rtcc.o
 .debug_ranges  0x00000000000005c8       0x80 build/default/debug/_ext/513455433/plib_i2c5_master.o
 .debug_ranges  0x0000000000000648       0x80 build/default/debug/_ext/1865161661/plib_dmac.o
 .debug_ranges  0x00000000000006c8      0x120 build/default/debug/usb_uart.o
 .debug_ranges  0x00000000000007e8       0x28 build/default/debug/usb_uart_rx_lookup_table.o
 .debug_ranges  0x0000000000000810       0x50 build/default/debug/terminal_control.o
 .debug_ranges  0x0000000000000860       0x48 C:\Users\drewm\AppData\Local\Temp\ccEOzkaJ.o
 .debug_ranges  0x00000000000008a8       0x10 c:/program files/microchip/xc32/v4.30/bin/bin/../../lib/gcc/pic32mx/8.3.1/../../../../pic32mx/lib/fpu64\libpic32.a(default-on-reset.o)
 .debug_ranges  0x00000000000008b8       0x10 c:/program files/microchip/xc32/v4.30/bin/bin/../../lib/gcc/pic32mx/8.3.1/../../../../pic32mx/lib/fpu64\libpic32.a(default-on-bootstrap.o)
 .debug_ranges  0x00000000000008c8       0x10 c:/program files/microchip/xc32/v4.30/bin/bin/../../lib/gcc/pic32mx/8.3.1/../../../../pic32mx/lib/fpu64\libpic32.a(defaultinterrupt.o)
 .debug_ranges  0x00000000000008d8       0x20 c:/program files/microchip/xc32/v4.30/bin/bin/../../lib/gcc/pic32mx/8.3.1/../../../../pic32mx/lib/fpu64\libc-musl.a(exit.o)
 .debug_ranges  0x00000000000008f8      0x1c0 c:/program files/microchip/xc32/v4.30/bin/bin/../../lib/gcc/pic32mx/8.3.1/../../../../pic32mx/lib/fpu64\libc-musl.a(malloc.o)
 .debug_ranges  0x0000000000000ab8       0x10 c:/program files/microchip/xc32/v4.30/bin/bin/../../lib/gcc/pic32mx/8.3.1/../../../../pic32mx/lib/fpu64\libc-musl.a(expand_heap.o)
 .debug_ranges  0x0000000000000ac8       0x10 c:/program files/microchip/xc32/v4.30/bin/bin/../../lib/gcc/pic32mx/8.3.1/../../../../pic32mx/lib/fpu64\libc-musl.a(printf.o)
 .debug_ranges  0x0000000000000ad8       0x10 c:/program files/microchip/xc32/v4.30/bin/bin/../../lib/gcc/pic32mx/8.3.1/../../../../pic32mx/lib/fpu64\libc-musl.a(puts.o)
 .debug_ranges  0x0000000000000ae8       0x10 c:/program files/microchip/xc32/v4.30/bin/bin/../../lib/gcc/pic32mx/8.3.1/../../../../pic32mx/lib/fpu64\libc-musl.a(sprintf.o)
 .debug_ranges  0x0000000000000af8       0x10 c:/program files/microchip/xc32/v4.30/bin/bin/../../lib/gcc/pic32mx/8.3.1/../../../../pic32mx/lib/fpu64\libc-musl.a(vsprintf.o)
 .debug_ranges  0x0000000000000b08       0x10 c:/program files/microchip/xc32/v4.30/bin/bin/../../lib/gcc/pic32mx/8.3.1/../../../../pic32mx/lib/fpu64\libc-musl.a(strcat.o)
 .debug_ranges  0x0000000000000b18       0x10 c:/program files/microchip/xc32/v4.30/bin/bin/../../lib/gcc/pic32mx/8.3.1/../../../../pic32mx/lib/fpu64\libc-musl.a(strncpy.o)
 .debug_ranges  0x0000000000000b28       0x10 c:/program files/microchip/xc32/v4.30/bin/bin/../../lib/gcc/pic32mx/8.3.1/../../../../pic32mx/lib/fpu64\libc-musl.a(strtok.o)
 .debug_ranges  0x0000000000000b38       0x10 c:/program files/microchip/xc32/v4.30/bin/bin/../../lib/gcc/pic32mx/8.3.1/../../../../pic32mx/lib/fpu64\libc-musl.a(_Exit.o)
 .debug_ranges  0x0000000000000b48       0x10 c:/program files/microchip/xc32/v4.30/bin/bin/../../lib/gcc/pic32mx/8.3.1/../../../../pic32mx/lib/fpu64\libc-musl.a(fputs.o)
 .debug_ranges  0x0000000000000b58       0x18 c:/program files/microchip/xc32/v4.30/bin/bin/../../lib/gcc/pic32mx/8.3.1/../../../../pic32mx/lib/fpu64\libc-musl.a(fwrite.o)
 .debug_ranges  0x0000000000000b70       0x20 c:/program files/microchip/xc32/v4.30/bin/bin/../../lib/gcc/pic32mx/8.3.1/../../../../pic32mx/lib/fpu64\libc-musl.a(putc.o)
 .debug_ranges  0x0000000000000b90       0x18 c:/program files/microchip/xc32/v4.30/bin/bin/../../lib/gcc/pic32mx/8.3.1/../../../../pic32mx/lib/fpu64\libc-musl.a(vfprintf.o)
 .debug_ranges  0x0000000000000ba8       0x10 c:/program files/microchip/xc32/v4.30/bin/bin/../../lib/gcc/pic32mx/8.3.1/../../../../pic32mx/lib/fpu64\libc-musl.a(vsnprintf.o)
 .debug_ranges  0x0000000000000bb8       0x20 c:/program files/microchip/xc32/v4.30/bin/bin/../../lib/gcc/pic32mx/8.3.1/../../../../pic32mx/lib/fpu64\libc-musl.a(stdout.o)
 .debug_ranges  0x0000000000000bd8       0x10 c:/program files/microchip/xc32/v4.30/bin/bin/../../lib/gcc/pic32mx/8.3.1/../../../../pic32mx/lib/fpu64\libc-musl.a(stpncpy.o)
 .debug_ranges  0x0000000000000be8       0x10 c:/program files/microchip/xc32/v4.30/bin/bin/../../lib/gcc/pic32mx/8.3.1/../../../../pic32mx/lib/fpu64\libc-musl.a(strcspn.o)
 .debug_ranges  0x0000000000000bf8       0x10 c:/program files/microchip/xc32/v4.30/bin/bin/../../lib/gcc/pic32mx/8.3.1/../../../../pic32mx/lib/fpu64\libc-musl.a(strspn.o)
 .debug_ranges  0x0000000000000c08       0x10 c:/program files/microchip/xc32/v4.30/bin/bin/../../lib/gcc/pic32mx/8.3.1/../../../../pic32mx/lib/fpu64\libc-musl.a(__io_fmt_needed.o)
 .debug_ranges  0x0000000000000c18       0x18 c:/program files/microchip/xc32/v4.30/bin/bin/../../lib/gcc/pic32mx/8.3.1/../../../../pic32mx/lib/fpu64\libc-musl.a(__io_init_needed.o)
 .debug_ranges  0x0000000000000c30       0x30 c:/program files/microchip/xc32/v4.30/bin/bin/../../lib/gcc/pic32mx/8.3.1/../../../../pic32mx/lib/fpu64\libc-musl.a(__out.o)
 .debug_ranges  0x0000000000000c60       0x10 c:/program files/microchip/xc32/v4.30/bin/bin/../../lib/gcc/pic32mx/8.3.1/../../../../pic32mx/lib/fpu64\libc-musl.a(__pop_float.o)
 .debug_ranges  0x0000000000000c70       0x10 c:/program files/microchip/xc32/v4.30/bin/bin/../../lib/gcc/pic32mx/8.3.1/../../../../pic32mx/lib/fpu64\libc-musl.a(__pop_int.o)
 .debug_ranges  0x0000000000000c80       0x10 c:/program files/microchip/xc32/v4.30/bin/bin/../../lib/gcc/pic32mx/8.3.1/../../../../pic32mx/lib/fpu64\libc-musl.a(__pop_ptr.o)
 .debug_ranges  0x0000000000000c90       0xe8 c:/program files/microchip/xc32/v4.30/bin/bin/../../lib/gcc/pic32mx/8.3.1/../../../../pic32mx/lib/fpu64\libc-musl.a(__printf_core.o)
 .debug_ranges  0x0000000000000d78       0x18 c:/program files/microchip/xc32/v4.30/bin/bin/../../lib/gcc/pic32mx/8.3.1/../../../../pic32mx/lib/fpu64\libc-musl.a(__stdio_close.o)
 .debug_ranges  0x0000000000000d90       0x28 c:/program files/microchip/xc32/v4.30/bin/bin/../../lib/gcc/pic32mx/8.3.1/../../../../pic32mx/lib/fpu64\libc-musl.a(atoi.o)
 .debug_ranges  0x0000000000000db8       0x10 c:/program files/microchip/xc32/v4.30/bin/bin/../../lib/gcc/pic32mx/8.3.1/../../../../pic32mx/lib/fpu64\libc-musl.a(strchrnul.o)
 .debug_ranges  0x0000000000000dc8       0x18 c:/program files/microchip/xc32/v4.30/bin/bin/../../lib/gcc/pic32mx/8.3.1/../../../../pic32mx/lib/fpu64\libc-musl.a(tolower.o)
 .debug_ranges  0x0000000000000de0       0x10 c:/program files/microchip/xc32/v4.30/bin/bin/../../lib/gcc/pic32mx/8.3.1/../../../../pic32mx/lib/fpu64\libc-musl.a(__fmt_a.o)
 .debug_ranges  0x0000000000000df0       0x10 c:/program files/microchip/xc32/v4.30/bin/bin/../../lib/gcc/pic32mx/8.3.1/../../../../pic32mx/lib/fpu64\libc-musl.a(__fmt_d.o)
 .debug_ranges  0x0000000000000e00       0x10 c:/program files/microchip/xc32/v4.30/bin/bin/../../lib/gcc/pic32mx/8.3.1/../../../../pic32mx/lib/fpu64\libc-musl.a(__fmt_fp.o)
 .debug_ranges  0x0000000000000e10       0x10 c:/program files/microchip/xc32/v4.30/bin/bin/../../lib/gcc/pic32mx/8.3.1/../../../../pic32mx/lib/fpu64\libc-musl.a(__fmt_o.o)
 .debug_ranges  0x0000000000000e20       0x10 c:/program files/microchip/xc32/v4.30/bin/bin/../../lib/gcc/pic32mx/8.3.1/../../../../pic32mx/lib/fpu64\libc-musl.a(__fmt_s.o)
 .debug_ranges  0x0000000000000e30       0x10 c:/program files/microchip/xc32/v4.30/bin/bin/../../lib/gcc/pic32mx/8.3.1/../../../../pic32mx/lib/fpu64\libc-musl.a(__fmt_u.o)
 .debug_ranges  0x0000000000000e40       0x10 c:/program files/microchip/xc32/v4.30/bin/bin/../../lib/gcc/pic32mx/8.3.1/../../../../pic32mx/lib/fpu64\libc-musl.a(__fmt_x.o)
 .debug_ranges  0x0000000000000e50       0x18 c:/program files/microchip/xc32/v4.30/bin/bin/../../lib/gcc/pic32mx/8.3.1/../../../../pic32mx/lib/fpu64\libc-musl.a(__init_stdio.o)
 .debug_ranges  0x0000000000000e68       0x10 c:/program files/microchip/xc32/v4.30/bin/bin/../../lib/gcc/pic32mx/8.3.1/../../../../pic32mx/lib/fpu64\libc-musl.a(__io_file_needed.o)
 .debug_ranges  0x0000000000000e78       0x18 c:/program files/microchip/xc32/v4.30/bin/bin/../../lib/gcc/pic32mx/8.3.1/../../../../pic32mx/lib/fpu64\libc-musl.a(toupper.o)
 .debug_ranges  0x0000000000000e90       0x10 c:/program files/microchip/xc32/v4.30/bin/bin/../../lib/gcc/pic32mx/8.3.1/../../../../pic32mx/lib/fpu64\libc-musl.a(__cvt_u.o)
 .debug_ranges  0x0000000000000ea0       0x10 c:/program files/microchip/xc32/v4.30/bin/bin/../../lib/gcc/pic32mx/8.3.1/../../../../pic32mx/lib/fpu64\libm-musl.a(floor.o)
 .debug_ranges  0x0000000000000eb0       0x78 c:/program files/microchip/xc32/v4.30/bin/bin/../../lib/gcc/pic32mx/8.3.1/../../../../pic32mx/lib/fpu64\libm-musl.a(fma.o)
 .debug_ranges  0x0000000000000f28       0x10 c:/program files/microchip/xc32/v4.30/bin/bin/../../lib/gcc/pic32mx/8.3.1/../../../../pic32mx/lib/fpu64\libm-musl.a(scalbn.o)
 .debug_ranges  0x0000000000000f38       0xd8 c:/program files/microchip/xc32/v4.30/bin/bin/../../lib/gcc/pic32mx/8.3.1/fpu64\libgcc.a(_udivdi3.o)
 .debug_ranges  0x0000000000001010       0xc0 c:/program files/microchip/xc32/v4.30/bin/bin/../../lib/gcc/pic32mx/8.3.1/fpu64\libgcc.a(_umoddi3.o)
 .debug_ranges  0x00000000000010d0       0x30 c:/program files/microchip/xc32/v4.30/bin/bin/../../lib/gcc/pic32mx/8.3.1/../../../../pic32mx/lib/fpu64\libpic32.a(sbrk.o)
 .debug_ranges  0x0000000000001100       0x10 c:/program files/microchip/xc32/v4.30/bin/bin/../../lib/gcc/pic32mx/8.3.1/../../../../pic32mx/lib/fpu64\libpic32.a(_exit.o)
 .debug_ranges  0x0000000000001110       0x10 c:/program files/microchip/xc32/v4.30/bin/bin/../../lib/gcc/pic32mx/8.3.1/../../../../pic32mx/lib/fpu64\libpic32.a(lseek.o)
 .debug_ranges  0x0000000000001120       0x10 c:/program files/microchip/xc32/v4.30/bin/bin/../../lib/gcc/pic32mx/8.3.1/../../../../pic32mx/lib/fpu64\libpic32.a(close.o)

.gnu.attributes
                0x0000000000000000       0x10
 *(.gnu.attributes)
 .gnu.attributes
                0x0000000000000000       0x10 c:/program files/microchip/xc32/v4.30/bin/bin/../../lib/gcc/pic32mx/8.3.1/../../../../pic32mx/lib/fpu64\software-debug-break.o
 .gnu.attributes
                0x0000000000000010       0x10 build/default/debug/_ext/1984157808/plib_cache.o
 .gnu.attributes
                0x0000000000000020       0x10 build/default/debug/_ext/1984157808/plib_cache_pic32mz.o
 .gnu.attributes
                0x0000000000000030       0x10 build/default/debug/_ext/60165520/plib_clk.o
 .gnu.attributes
                0x0000000000000040       0x10 build/default/debug/_ext/1249264884/plib_coretimer.o
 .gnu.attributes
                0x0000000000000050       0x10 build/default/debug/_ext/1865200349/plib_evic.o
 .gnu.attributes
                0x0000000000000060       0x10 build/default/debug/_ext/1865254177/plib_gpio.o
 .gnu.attributes
                0x0000000000000070       0x10 build/default/debug/_ext/60179596/plib_ram.o
 .gnu.attributes
                0x0000000000000080       0x10 build/default/debug/_ext/60184501/plib_wdt.o
 .gnu.attributes
                0x0000000000000090       0x10 build/default/debug/_ext/163028504/xc32_monitor.o
 .gnu.attributes
                0x00000000000000a0       0x10 build/default/debug/_ext/1014039709/sys_cache.o
 .gnu.attributes
                0x00000000000000b0       0x10 build/default/debug/_ext/14461671/sys_dma.o
 .gnu.attributes
                0x00000000000000c0       0x10 build/default/debug/_ext/1881668453/sys_int.o
 .gnu.attributes
                0x00000000000000d0       0x10 build/default/debug/_ext/1000052432/sys_reset.o
 .gnu.attributes
                0x00000000000000e0       0x10 build/default/debug/_ext/1171490990/interrupts.o
 .gnu.attributes
                0x00000000000000f0       0x10 build/default/debug/_ext/1171490990/initialization.o
 .gnu.attributes
                0x0000000000000100       0x10 build/default/debug/_ext/1171490990/tasks.o
 .gnu.attributes
                0x0000000000000110       0x10 build/default/debug/_ext/1171490990/exceptions.o
 .gnu.attributes
                0x0000000000000120       0x10 build/default/debug/heartbeat_timer.o
 .gnu.attributes
                0x0000000000000130       0x10 build/default/debug/_ext/1360937237/main.o
 .gnu.attributes
                0x0000000000000140       0x10 build/default/debug/_ext/1865657120/plib_uart3.o
 .gnu.attributes
                0x0000000000000150       0x10 build/default/debug/_ext/1865585524/plib_rtcc.o
 .gnu.attributes
                0x0000000000000160       0x10 build/default/debug/_ext/513455433/plib_i2c5_master.o
 .gnu.attributes
                0x0000000000000170       0x10 build/default/debug/_ext/1865161661/plib_dmac.o
 .gnu.attributes
                0x0000000000000180       0x10 build/default/debug/usb_uart.o
 .gnu.attributes
                0x0000000000000190       0x10 build/default/debug/usb_uart_rx_lookup_table.o
 .gnu.attributes
                0x00000000000001a0       0x10 build/default/debug/terminal_control.o
 .gnu.attributes
                0x00000000000001b0       0x10 C:\Users\drewm\AppData\Local\Temp\ccEOzkaJ.o
 .gnu.attributes
                0x00000000000001c0       0x10 C:\Users\drewm\AppData\Local\Temp\ccxWnPAL.o
 .gnu.attributes
                0x00000000000001d0       0x10 C:\Users\drewm\AppData\Local\Temp\ccV9qaPM.o
 .gnu.attributes
                0x00000000000001e0       0x10 C:\Users\drewm\AppData\Local\Temp\ccR2QC0V.o
 .gnu.attributes
                0x00000000000001f0       0x10 c:/program files/microchip/xc32/v4.30/bin/bin/../../lib/gcc/pic32mx/8.3.1/../../../../pic32mx/lib/fpu64\pic32_software_reset.o
 .gnu.attributes
                0x0000000000000200       0x10 c:/program files/microchip/xc32/v4.30/bin/bin/../../lib/gcc/pic32mx/8.3.1/../../../../pic32mx/lib/fpu64\libpic32.a(memcpy.o)
 .gnu.attributes
                0x0000000000000210       0x10 c:/program files/microchip/xc32/v4.30/bin/bin/../../lib/gcc/pic32mx/8.3.1/../../../../pic32mx/lib/fpu64\libpic32.a(memset.o)
 .gnu.attributes
                0x0000000000000220       0x10 c:/program files/microchip/xc32/v4.30/bin/bin/../../lib/gcc/pic32mx/8.3.1/../../../../pic32mx/lib/fpu64\libpic32.a(strcmp.o)
 .gnu.attributes
                0x0000000000000230       0x10 c:/program files/microchip/xc32/v4.30/bin/bin/../../lib/gcc/pic32mx/8.3.1/../../../../pic32mx/lib/fpu64\libpic32.a(strcpy.o)
 .gnu.attributes
                0x0000000000000240       0x10 c:/program files/microchip/xc32/v4.30/bin/bin/../../lib/gcc/pic32mx/8.3.1/../../../../pic32mx/lib/fpu64\libpic32.a(strlen.o)
 .gnu.attributes
                0x0000000000000250       0x10 c:/program files/microchip/xc32/v4.30/bin/bin/../../lib/gcc/pic32mx/8.3.1/../../../../pic32mx/lib/fpu64\libpic32.a(default-on-reset.o)
 .gnu.attributes
                0x0000000000000260       0x10 c:/program files/microchip/xc32/v4.30/bin/bin/../../lib/gcc/pic32mx/8.3.1/../../../../pic32mx/lib/fpu64\libpic32.a(default-on-bootstrap.o)
 .gnu.attributes
                0x0000000000000270       0x10 c:/program files/microchip/xc32/v4.30/bin/bin/../../lib/gcc/pic32mx/8.3.1/../../../../pic32mx/lib/fpu64\libpic32.a(default-nmi-handler.o)
 .gnu.attributes
                0x0000000000000280       0x10 c:/program files/microchip/xc32/v4.30/bin/bin/../../lib/gcc/pic32mx/8.3.1/../../../../pic32mx/lib/fpu64\libpic32.a(pic32_data_init_core.o)
 .gnu.attributes
                0x0000000000000290       0x10 c:/program files/microchip/xc32/v4.30/bin/bin/../../lib/gcc/pic32mx/8.3.1/../../../../pic32mx/lib/fpu64\libpic32.a(pic32_init_cache.o)
 .gnu.attributes
                0x00000000000002a0       0x10 c:/program files/microchip/xc32/v4.30/bin/bin/../../lib/gcc/pic32mx/8.3.1/../../../../pic32mx/lib/fpu64\libpic32.a(pic32_init_tlb_ebi_sqi.o)
 .gnu.attributes
                0x00000000000002b0       0x10 c:/program files/microchip/xc32/v4.30/bin/bin/../../lib/gcc/pic32mx/8.3.1/../../../../pic32mx/lib/fpu64\libpic32.a(general-exception.o)
 .gnu.attributes
                0x00000000000002c0       0x10 c:/program files/microchip/xc32/v4.30/bin/bin/../../lib/gcc/pic32mx/8.3.1/../../../../pic32mx/lib/fpu64\libpic32.a(cache-err-exception.o)
 .gnu.attributes
                0x00000000000002d0       0x10 c:/program files/microchip/xc32/v4.30/bin/bin/../../lib/gcc/pic32mx/8.3.1/../../../../pic32mx/lib/fpu64\libpic32.a(simple-tlb-refill-exception.o)
 .gnu.attributes
                0x00000000000002e0       0x10 c:/program files/microchip/xc32/v4.30/bin/bin/../../lib/gcc/pic32mx/8.3.1/../../../../pic32mx/lib/fpu64\libpic32.a(defaultinterrupt.o)
 .gnu.attributes
                0x00000000000002f0       0x10 c:/program files/microchip/xc32/v4.30/bin/bin/../../lib/gcc/pic32mx/8.3.1/../../../../pic32mx/lib/fpu64\libc-musl.a(exit.o)
 .gnu.attributes
                0x0000000000000300       0x10 c:/program files/microchip/xc32/v4.30/bin/bin/../../lib/gcc/pic32mx/8.3.1/../../../../pic32mx/lib/fpu64\libc-musl.a(malloc.o)
 .gnu.attributes
                0x0000000000000310       0x10 c:/program files/microchip/xc32/v4.30/bin/bin/../../lib/gcc/pic32mx/8.3.1/../../../../pic32mx/lib/fpu64\libc-musl.a(expand_heap.o)
 .gnu.attributes
                0x0000000000000320       0x10 c:/program files/microchip/xc32/v4.30/bin/bin/../../lib/gcc/pic32mx/8.3.1/../../../../pic32mx/lib/fpu64\libc-musl.a(printf.o)
 .gnu.attributes
                0x0000000000000330       0x10 c:/program files/microchip/xc32/v4.30/bin/bin/../../lib/gcc/pic32mx/8.3.1/../../../../pic32mx/lib/fpu64\libc-musl.a(puts.o)
 .gnu.attributes
                0x0000000000000340       0x10 c:/program files/microchip/xc32/v4.30/bin/bin/../../lib/gcc/pic32mx/8.3.1/../../../../pic32mx/lib/fpu64\libc-musl.a(sprintf.o)
 .gnu.attributes
                0x0000000000000350       0x10 c:/program files/microchip/xc32/v4.30/bin/bin/../../lib/gcc/pic32mx/8.3.1/../../../../pic32mx/lib/fpu64\libc-musl.a(vsprintf.o)
 .gnu.attributes
                0x0000000000000360       0x10 c:/program files/microchip/xc32/v4.30/bin/bin/../../lib/gcc/pic32mx/8.3.1/../../../../pic32mx/lib/fpu64\libc-musl.a(strcat.o)
 .gnu.attributes
                0x0000000000000370       0x10 c:/program files/microchip/xc32/v4.30/bin/bin/../../lib/gcc/pic32mx/8.3.1/../../../../pic32mx/lib/fpu64\libc-musl.a(strncpy.o)
 .gnu.attributes
                0x0000000000000380       0x10 c:/program files/microchip/xc32/v4.30/bin/bin/../../lib/gcc/pic32mx/8.3.1/../../../../pic32mx/lib/fpu64\libc-musl.a(strtok.o)
 .gnu.attributes
                0x0000000000000390       0x10 c:/program files/microchip/xc32/v4.30/bin/bin/../../lib/gcc/pic32mx/8.3.1/../../../../pic32mx/lib/fpu64\libc-musl.a(_Exit.o)
 .gnu.attributes
                0x00000000000003a0       0x10 c:/program files/microchip/xc32/v4.30/bin/bin/../../lib/gcc/pic32mx/8.3.1/../../../../pic32mx/lib/fpu64\libc-musl.a(libc.o)
 .gnu.attributes
                0x00000000000003b0       0x10 c:/program files/microchip/xc32/v4.30/bin/bin/../../lib/gcc/pic32mx/8.3.1/../../../../pic32mx/lib/fpu64\libc-musl.a(fputs.o)
 .gnu.attributes
                0x00000000000003c0       0x10 c:/program files/microchip/xc32/v4.30/bin/bin/../../lib/gcc/pic32mx/8.3.1/../../../../pic32mx/lib/fpu64\libc-musl.a(fwrite.o)
 .gnu.attributes
                0x00000000000003d0       0x10 c:/program files/microchip/xc32/v4.30/bin/bin/../../lib/gcc/pic32mx/8.3.1/../../../../pic32mx/lib/fpu64\libc-musl.a(putc.o)
 .gnu.attributes
                0x00000000000003e0       0x10 c:/program files/microchip/xc32/v4.30/bin/bin/../../lib/gcc/pic32mx/8.3.1/../../../../pic32mx/lib/fpu64\libc-musl.a(vfprintf.o)
 .gnu.attributes
                0x00000000000003f0       0x10 c:/program files/microchip/xc32/v4.30/bin/bin/../../lib/gcc/pic32mx/8.3.1/../../../../pic32mx/lib/fpu64\libc-musl.a(vsnprintf.o)
 .gnu.attributes
                0x0000000000000400       0x10 c:/program files/microchip/xc32/v4.30/bin/bin/../../lib/gcc/pic32mx/8.3.1/../../../../pic32mx/lib/fpu64\libc-musl.a(stdout.o)
 .gnu.attributes
                0x0000000000000410       0x10 c:/program files/microchip/xc32/v4.30/bin/bin/../../lib/gcc/pic32mx/8.3.1/../../../../pic32mx/lib/fpu64\libc-musl.a(stpncpy.o)
 .gnu.attributes
                0x0000000000000420       0x10 c:/program files/microchip/xc32/v4.30/bin/bin/../../lib/gcc/pic32mx/8.3.1/../../../../pic32mx/lib/fpu64\libc-musl.a(strcspn.o)
 .gnu.attributes
                0x0000000000000430       0x10 c:/program files/microchip/xc32/v4.30/bin/bin/../../lib/gcc/pic32mx/8.3.1/../../../../pic32mx/lib/fpu64\libc-musl.a(strspn.o)
 .gnu.attributes
                0x0000000000000440       0x10 c:/program files/microchip/xc32/v4.30/bin/bin/../../lib/gcc/pic32mx/8.3.1/../../../../pic32mx/lib/fpu64\libc-musl.a(__io_fmt_needed.o)
 .gnu.attributes
                0x0000000000000450       0x10 c:/program files/microchip/xc32/v4.30/bin/bin/../../lib/gcc/pic32mx/8.3.1/../../../../pic32mx/lib/fpu64\libc-musl.a(__io_init_needed.o)
 .gnu.attributes
                0x0000000000000460       0x10 c:/program files/microchip/xc32/v4.30/bin/bin/../../lib/gcc/pic32mx/8.3.1/../../../../pic32mx/lib/fpu64\libc-musl.a(__out.o)
 .gnu.attributes
                0x0000000000000470       0x10 c:/program files/microchip/xc32/v4.30/bin/bin/../../lib/gcc/pic32mx/8.3.1/../../../../pic32mx/lib/fpu64\libc-musl.a(__pop_float.o)
 .gnu.attributes
                0x0000000000000480       0x10 c:/program files/microchip/xc32/v4.30/bin/bin/../../lib/gcc/pic32mx/8.3.1/../../../../pic32mx/lib/fpu64\libc-musl.a(__pop_int.o)
 .gnu.attributes
                0x0000000000000490       0x10 c:/program files/microchip/xc32/v4.30/bin/bin/../../lib/gcc/pic32mx/8.3.1/../../../../pic32mx/lib/fpu64\libc-musl.a(__pop_ptr.o)
 .gnu.attributes
                0x00000000000004a0       0x10 c:/program files/microchip/xc32/v4.30/bin/bin/../../lib/gcc/pic32mx/8.3.1/../../../../pic32mx/lib/fpu64\libc-musl.a(__printf_core.o)
 .gnu.attributes
                0x00000000000004b0       0x10 c:/program files/microchip/xc32/v4.30/bin/bin/../../lib/gcc/pic32mx/8.3.1/../../../../pic32mx/lib/fpu64\libc-musl.a(__stdio_close.o)
 .gnu.attributes
                0x00000000000004c0       0x10 c:/program files/microchip/xc32/v4.30/bin/bin/../../lib/gcc/pic32mx/8.3.1/../../../../pic32mx/lib/fpu64\libc-musl.a(atoi.o)
 .gnu.attributes
                0x00000000000004d0       0x10 c:/program files/microchip/xc32/v4.30/bin/bin/../../lib/gcc/pic32mx/8.3.1/../../../../pic32mx/lib/fpu64\libc-musl.a(strchrnul.o)
 .gnu.attributes
                0x00000000000004e0       0x10 c:/program files/microchip/xc32/v4.30/bin/bin/../../lib/gcc/pic32mx/8.3.1/../../../../pic32mx/lib/fpu64\libc-musl.a(tolower.o)
 .gnu.attributes
                0x00000000000004f0       0x10 c:/program files/microchip/xc32/v4.30/bin/bin/../../lib/gcc/pic32mx/8.3.1/../../../../pic32mx/lib/fpu64\libc-musl.a(__fmt_a.o)
 .gnu.attributes
                0x0000000000000500       0x10 c:/program files/microchip/xc32/v4.30/bin/bin/../../lib/gcc/pic32mx/8.3.1/../../../../pic32mx/lib/fpu64\libc-musl.a(__fmt_d.o)
 .gnu.attributes
                0x0000000000000510       0x10 c:/program files/microchip/xc32/v4.30/bin/bin/../../lib/gcc/pic32mx/8.3.1/../../../../pic32mx/lib/fpu64\libc-musl.a(__fmt_fp.o)
 .gnu.attributes
                0x0000000000000520       0x10 c:/program files/microchip/xc32/v4.30/bin/bin/../../lib/gcc/pic32mx/8.3.1/../../../../pic32mx/lib/fpu64\libc-musl.a(__fmt_o.o)
 .gnu.attributes
                0x0000000000000530       0x10 c:/program files/microchip/xc32/v4.30/bin/bin/../../lib/gcc/pic32mx/8.3.1/../../../../pic32mx/lib/fpu64\libc-musl.a(__fmt_s.o)
 .gnu.attributes
                0x0000000000000540       0x10 c:/program files/microchip/xc32/v4.30/bin/bin/../../lib/gcc/pic32mx/8.3.1/../../../../pic32mx/lib/fpu64\libc-musl.a(__fmt_u.o)
 .gnu.attributes
                0x0000000000000550       0x10 c:/program files/microchip/xc32/v4.30/bin/bin/../../lib/gcc/pic32mx/8.3.1/../../../../pic32mx/lib/fpu64\libc-musl.a(__fmt_x.o)
 .gnu.attributes
                0x0000000000000560       0x10 c:/program files/microchip/xc32/v4.30/bin/bin/../../lib/gcc/pic32mx/8.3.1/../../../../pic32mx/lib/fpu64\libc-musl.a(__init_stdio.o)
 .gnu.attributes
                0x0000000000000570       0x10 c:/program files/microchip/xc32/v4.30/bin/bin/../../lib/gcc/pic32mx/8.3.1/../../../../pic32mx/lib/fpu64\libc-musl.a(__io_file_needed.o)
 .gnu.attributes
                0x0000000000000580       0x10 c:/program files/microchip/xc32/v4.30/bin/bin/../../lib/gcc/pic32mx/8.3.1/../../../../pic32mx/lib/fpu64\libc-musl.a(toupper.o)
 .gnu.attributes
                0x0000000000000590       0x10 c:/program files/microchip/xc32/v4.30/bin/bin/../../lib/gcc/pic32mx/8.3.1/../../../../pic32mx/lib/fpu64\libc-musl.a(__cvt_u.o)
 .gnu.attributes
                0x00000000000005a0       0x10 c:/program files/microchip/xc32/v4.30/bin/bin/../../lib/gcc/pic32mx/8.3.1/../../../../pic32mx/lib/fpu64\libm-musl.a(floor.o)
 .gnu.attributes
                0x00000000000005b0       0x10 c:/program files/microchip/xc32/v4.30/bin/bin/../../lib/gcc/pic32mx/8.3.1/../../../../pic32mx/lib/fpu64\libm-musl.a(fma.o)
 .gnu.attributes
                0x00000000000005c0       0x10 c:/program files/microchip/xc32/v4.30/bin/bin/../../lib/gcc/pic32mx/8.3.1/../../../../pic32mx/lib/fpu64\libm-musl.a(scalbn.o)
 .gnu.attributes
                0x00000000000005d0       0x10 c:/program files/microchip/xc32/v4.30/bin/bin/../../lib/gcc/pic32mx/8.3.1/fpu64\libgcc.a(_lshrdi3.o)
 .gnu.attributes
                0x00000000000005e0       0x10 c:/program files/microchip/xc32/v4.30/bin/bin/../../lib/gcc/pic32mx/8.3.1/fpu64\libgcc.a(_ashldi3.o)
 .gnu.attributes
                0x00000000000005f0       0x10 c:/program files/microchip/xc32/v4.30/bin/bin/../../lib/gcc/pic32mx/8.3.1/fpu64\libgcc.a(_udivdi3.o)
 .gnu.attributes
                0x0000000000000600       0x10 c:/program files/microchip/xc32/v4.30/bin/bin/../../lib/gcc/pic32mx/8.3.1/fpu64\libgcc.a(_umoddi3.o)
 .gnu.attributes
                0x0000000000000610       0x10 c:/program files/microchip/xc32/v4.30/bin/bin/../../lib/gcc/pic32mx/8.3.1/../../../../pic32mx/lib/fpu64\libpic32.a(sbrk.o)
 .gnu.attributes
                0x0000000000000620       0x10 c:/program files/microchip/xc32/v4.30/bin/bin/../../lib/gcc/pic32mx/8.3.1/../../../../pic32mx/lib/fpu64\libpic32.a(_exit.o)
 .gnu.attributes
                0x0000000000000630       0x10 c:/program files/microchip/xc32/v4.30/bin/bin/../../lib/gcc/pic32mx/8.3.1/../../../../pic32mx/lib/fpu64\libpic32.a(lseek.o)
 .gnu.attributes
                0x0000000000000640       0x10 c:/program files/microchip/xc32/v4.30/bin/bin/../../lib/gcc/pic32mx/8.3.1/../../../../pic32mx/lib/fpu64\libpic32.a(close.o)
 .gnu.attributes
                0x0000000000000650       0x10 c:/program files/microchip/xc32/v4.30/bin/bin/../../lib/gcc/pic32mx/8.3.1/../../../../pic32mx/lib/fpu64\libpic32.a(errno.o)
 .gnu.attributes
                0x0000000000000660       0x10 c:/program files/microchip/xc32/v4.30/bin/bin/../../lib/gcc/pic32mx/8.3.1/../../../../pic32mx/lib/fpu64\libpic32.a(pic32_data_init_clear.o)
 .gnu.attributes
                0x0000000000000670       0x10 c:/program files/microchip/xc32/v4.30/bin/bin/../../lib/gcc/pic32mx/8.3.1/../../../../pic32mx/lib/fpu64\libpic32.a(pic32_data_init_copy.o)
                0x000000009d000000                PROVIDE (__pic32_init_cache_program_base_addr = 0x9d000000)
                0x0000000080000000                PROVIDE (__pic32_init_cache_data_base_addr = 0x80000000)
                0x00000000d0000000                PROVIDE (__pic32_init_sqi_kseg2_virtual_base_addr = 0xd0000000)
                0x0000000030000000                PROVIDE (__pic32_init_sqi_kseg2_physical_base_addr = 0x30000000)
                0x000000000000001f                PROVIDE (__pic32_init_sqi_kseg2_entrylo0_bitset = 0x1f)
                0x00000000d0000000                __pic32_tlb_0_entryhi = __pic32_init_sqi_kseg2_virtual_base_addr
                0x0000000000c0001f                __pic32_tlb_0_entrylo0 = ((__pic32_init_sqi_kseg2_physical_base_addr >> 0x6) | __pic32_init_sqi_kseg2_entrylo0_bitset)
                0x0000000000c4001f                __pic32_tlb_0_entrylo1 = (__pic32_tlb_0_entrylo0 | ((__pic32_init_sqi_kseg2_physical_base_addr + 0x1000000) >> 0x6))
                0x00000000d2000000                __pic32_tlb_1_entryhi = (__pic32_init_sqi_kseg2_virtual_base_addr + 0x2000000)
                0x0000000000c8001f                __pic32_tlb_1_entrylo0 = (((__pic32_init_sqi_kseg2_physical_base_addr + 0x2000000) >> 0x6) | __pic32_init_sqi_kseg2_entrylo0_bitset)
                0x0000000000cc001f                __pic32_tlb_1_entrylo1 = (__pic32_tlb_1_entrylo0 | 0x40000)
                0x00000000f0000000                PROVIDE (__pic32_init_sqi_kseg3_virtual_base_addr = 0xf0000000)
                0x0000000030000000                PROVIDE (__pic32_init_sqi_kseg3_physical_base_addr = 0x30000000)
                0x0000000000000017                PROVIDE (__pic32_init_sqi_kseg3_entrylo0_bitset = 0x17)
                0x00000000f0000000                __pic32_tlb_2_entryhi = __pic32_init_sqi_kseg3_virtual_base_addr
                0x0000000000c00017                __pic32_tlb_2_entrylo0 = ((__pic32_init_sqi_kseg3_physical_base_addr >> 0x6) | __pic32_init_sqi_kseg3_entrylo0_bitset)
                0x0000000000c40017                __pic32_tlb_2_entrylo1 = (__pic32_tlb_2_entrylo0 | ((__pic32_init_sqi_kseg3_physical_base_addr + 0x1000000) >> 0x6))
                0x00000000f2000000                __pic32_tlb_3_entryhi = (__pic32_init_sqi_kseg3_virtual_base_addr + 0x2000000)
                0x0000000000c80017                __pic32_tlb_3_entrylo0 = (((__pic32_init_sqi_kseg3_physical_base_addr + 0x2000000) >> 0x6) | __pic32_init_sqi_kseg3_entrylo0_bitset)
                0x0000000000cc0017                __pic32_tlb_3_entrylo1 = (__pic32_tlb_3_entrylo0 | 0x40000)
                0x00000000c0000000                PROVIDE (__pic32_init_ebi_kseg2_virtual_base_addr = 0xc0000000)
                0x0000000020000000                PROVIDE (__pic32_init_ebi_kseg2_physical_base_addr = 0x20000000)
                0x000000000000001f                PROVIDE (__pic32_init_ebi_kseg2_entrylo0_bitset = 0x1f)
                0x00000000c0000000                __pic32_tlb_4_entryhi = __pic32_init_ebi_kseg2_virtual_base_addr
                0x000000000080001f                __pic32_tlb_4_entrylo0 = ((__pic32_init_ebi_kseg2_physical_base_addr >> 0x6) | __pic32_init_ebi_kseg2_entrylo0_bitset)
                0x000000000084001f                __pic32_tlb_4_entrylo1 = (__pic32_tlb_4_entrylo0 | ((__pic32_init_ebi_kseg2_physical_base_addr + 0x1000000) >> 0x6))
                0x00000000c2000000                __pic32_tlb_5_entryhi = (__pic32_init_ebi_kseg2_virtual_base_addr + 0x2000000)
                0x000000000088001f                __pic32_tlb_5_entrylo0 = (((__pic32_init_ebi_kseg2_physical_base_addr + 0x2000000) >> 0x6) | __pic32_init_ebi_kseg2_entrylo0_bitset)
                0x00000000008c001f                __pic32_tlb_5_entrylo1 = (__pic32_tlb_5_entrylo0 | 0x40000)
                0x00000000e0000000                PROVIDE (__pic32_init_ebi_kseg3_virtual_base_addr = 0xe0000000)
                0x0000000020000000                PROVIDE (__pic32_init_ebi_kseg3_physical_base_addr = 0x20000000)
                0x0000000000000017                PROVIDE (__pic32_init_ebi_kseg3_entrylo0_bitset = 0x17)
                0x00000000e0000000                __pic32_tlb_6_entryhi = __pic32_init_ebi_kseg3_virtual_base_addr
                0x0000000000800017                __pic32_tlb_6_entrylo0 = ((__pic32_init_ebi_kseg3_physical_base_addr >> 0x6) | __pic32_init_ebi_kseg3_entrylo0_bitset)
                0x0000000000840017                __pic32_tlb_6_entrylo1 = (__pic32_tlb_6_entrylo0 | ((__pic32_init_ebi_kseg3_physical_base_addr + 0x1000000) >> 0x6))
                0x00000000e2000000                __pic32_tlb_7_entryhi = (__pic32_init_ebi_kseg3_virtual_base_addr + 0x2000000)
                0x0000000000880017                __pic32_tlb_7_entrylo0 = (((__pic32_init_ebi_kseg3_physical_base_addr + 0x2000000) >> 0x6) | __pic32_init_ebi_kseg3_entrylo0_bitset)
                0x00000000008c0017                __pic32_tlb_7_entrylo1 = (__pic32_tlb_7_entrylo0 | 0x40000)

.tlb_init_values
                0x00000000bfc00670       0x60
                0x00000000bfc00670                . = ALIGN (0x4)
                0x00000000bfc00670                __pic32_tlb_init_values_begin = ABSOLUTE (.)
                0x00000000bfc00670        0x4 LONG 0xd0000000 __pic32_tlb_0_entryhi
                0x00000000bfc00674        0x4 LONG 0xc0001f __pic32_tlb_0_entrylo0
                0x00000000bfc00678        0x4 LONG 0xc4001f __pic32_tlb_0_entrylo1
                0x00000000bfc0067c        0x4 LONG 0xd2000000 __pic32_tlb_1_entryhi
                0x00000000bfc00680        0x4 LONG 0xc8001f __pic32_tlb_1_entrylo0
                0x00000000bfc00684        0x4 LONG 0xcc001f __pic32_tlb_1_entrylo1
                0x00000000bfc00688        0x4 LONG 0xf0000000 __pic32_tlb_2_entryhi
                0x00000000bfc0068c        0x4 LONG 0xc00017 __pic32_tlb_2_entrylo0
                0x00000000bfc00690        0x4 LONG 0xc40017 __pic32_tlb_2_entrylo1
                0x00000000bfc00694        0x4 LONG 0xf2000000 __pic32_tlb_3_entryhi
                0x00000000bfc00698        0x4 LONG 0xc80017 __pic32_tlb_3_entrylo0
                0x00000000bfc0069c        0x4 LONG 0xcc0017 __pic32_tlb_3_entrylo1
                0x00000000bfc006a0        0x4 LONG 0xc0000000 __pic32_tlb_4_entryhi
                0x00000000bfc006a4        0x4 LONG 0x80001f __pic32_tlb_4_entrylo0
                0x00000000bfc006a8        0x4 LONG 0x84001f __pic32_tlb_4_entrylo1
                0x00000000bfc006ac        0x4 LONG 0xc2000000 __pic32_tlb_5_entryhi
                0x00000000bfc006b0        0x4 LONG 0x88001f __pic32_tlb_5_entrylo0
                0x00000000bfc006b4        0x4 LONG 0x8c001f __pic32_tlb_5_entrylo1
                0x00000000bfc006b8        0x4 LONG 0xe0000000 __pic32_tlb_6_entryhi
                0x00000000bfc006bc        0x4 LONG 0x800017 __pic32_tlb_6_entrylo0
                0x00000000bfc006c0        0x4 LONG 0x840017 __pic32_tlb_6_entrylo1
                0x00000000bfc006c4        0x4 LONG 0xe2000000 __pic32_tlb_7_entryhi
                0x00000000bfc006c8        0x4 LONG 0x880017 __pic32_tlb_7_entrylo0
                0x00000000bfc006cc        0x4 LONG 0x8c0017 __pic32_tlb_7_entrylo1
                0x00000000bfc006d0                __pic32_tlb_init_values_end = ABSOLUTE (.)
                0x00000000bfc00678                __pic32_tlb_init_values_count = 0x8
                0x0000000000000001                __MPLAB_DEBUG = 0x1
                0x0000000000000001                __DEBUG = 0x1
                0x000000000001c200                _min_heap_size = 0x1c200
LOAD C:\Users\drewm\AppData\Local\Temp\ccEOzkaJ.o
LOAD C:\Users\drewm\AppData\Local\Temp\ccxWnPAL.o
LOAD C:\Users\drewm\AppData\Local\Temp\ccV9qaPM.o
LOAD C:\Users\drewm\AppData\Local\Temp\ccR2QC0V.o
LOAD c:/program files/microchip/xc32/v4.30/bin/bin/../../lib/gcc/pic32mx/8.3.1/../../../../pic32mx/lib/fpu64\pic32_software_reset.o
LOAD c:/program files/microchip/xc32/v4.30/bin/bin/../../lib/gcc/pic32mx/8.3.1/fpu64\libgcc.a
START GROUP
LOAD c:/program files/microchip/xc32/v4.30/bin/bin/../../lib/gcc/pic32mx/8.3.1/../../../../pic32mx/lib/fpu64\libpic32.a
LOAD c:/program files/microchip/xc32/v4.30/bin/bin/../../lib/gcc/pic32mx/8.3.1/../../../../pic32mx/lib/fpu64\libdebug.a
LOAD c:/program files/microchip/xc32/v4.30/bin/bin/../../lib/gcc/pic32mx/8.3.1/../../../../pic32mx/lib/fpu64\libc-musl.a
LOAD c:/program files/microchip/xc32/v4.30/bin/bin/../../lib/gcc/pic32mx/8.3.1/../../../../pic32mx/lib/fpu64\libm-musl.a
LOAD c:/program files/microchip/xc32/v4.30/bin/bin/../../lib/gcc/pic32mx/8.3.1/../../../../pic32mx/lib/fpu64\libdspr2.a
LOAD c:/program files/microchip/xc32/v4.30/bin/bin/../../lib/gcc/pic32mx/8.3.1/../../../../pic32mx/lib/fpu64\libdsp.a
LOAD c:/program files/microchip/xc32/v4.30/bin/bin/../../lib/gcc/pic32mx/8.3.1/fpu64\libgcc.a
END GROUP
LOAD c:/program files/microchip/xc32/v4.30/bin/bin/../../lib/gcc/pic32mx/8.3.1/fpu64\libgcc.a
OUTPUT(dist/default/debug/Nixie_Clock.X.debug.elf elf32-tradlittlemips)
LOAD data_init
LOAD stack

.reginfo        0x0000000000000000       0x18
 .reginfo       0x0000000000000000       0x18 c:/program files/microchip/xc32/v4.30/bin/bin/../../lib/gcc/pic32mx/8.3.1/../../../../pic32mx/lib/fpu64\software-debug-break.o

__xc_reference_data
                0x0000000000000000      0x18c
 __xc_reference_data
                0x0000000000000000       0x24 c:/program files/microchip/xc32/v4.30/bin/bin/../../lib/gcc/pic32mx/8.3.1/../../../../pic32mx/lib/fpu64\libc-musl.a(putc.o)
                0x0000000000000000                __putc_needs_out
 __xc_reference_data
                0x0000000000000024       0x24 c:/program files/microchip/xc32/v4.30/bin/bin/../../lib/gcc/pic32mx/8.3.1/../../../../pic32mx/lib/fpu64\libc-musl.a(vfprintf.o)
                0x0000000000000024                __vfprintf_needs_fmt
 __xc_reference_data
                0x0000000000000048       0x24 c:/program files/microchip/xc32/v4.30/bin/bin/../../lib/gcc/pic32mx/8.3.1/../../../../pic32mx/lib/fpu64\libc-musl.a(stdout.o)
                0x0000000000000048                __stdout_needs_init
 __xc_reference_data
                0x000000000000006c       0xb4 c:/program files/microchip/xc32/v4.30/bin/bin/../../lib/gcc/pic32mx/8.3.1/../../../../pic32mx/lib/fpu64\libc-musl.a(__io_fmt_needed.o)
                0x000000000000006c                __io_fmt_needed
 __xc_reference_data
                0x0000000000000120       0x48 c:/program files/microchip/xc32/v4.30/bin/bin/../../lib/gcc/pic32mx/8.3.1/../../../../pic32mx/lib/fpu64\libc-musl.a(__io_init_needed.o)
                0x0000000000000120                __io_init_needed
                0x0000000000000144                __io_init_needs_file
 __xc_reference_data
                0x0000000000000168       0x24 c:/program files/microchip/xc32/v4.30/bin/bin/../../lib/gcc/pic32mx/8.3.1/../../../../pic32mx/lib/fpu64\libc-musl.a(__io_file_needed.o)
                0x0000000000000168                __io_file_needed

.stack          0x00000000800219d8      0x400
 .stack         0x00000000800219d8      0x400 stack

.__vector_offset_BF810540_data
                0x00000000bf810540      0x178
 .__vector_offset_BF810540_data
                0x00000000bf810540      0x178 C:\Users\drewm\AppData\Local\Temp\ccV9qaPM.o

.__vector_offset_BF810740_data
                0x00000000bf810740       0xfc
 .__vector_offset_BF810740_data
                0x00000000bf810740       0xfc C:\Users\drewm\AppData\Local\Temp\ccV9qaPM.o

.__vector_offset_BF8106F4_data
                0x00000000bf8106f4       0x40
 .__vector_offset_BF8106F4_data
                0x00000000bf8106f4       0x40 C:\Users\drewm\AppData\Local\Temp\ccV9qaPM.o

.__vector_offset_BF8106D8_data
                0x00000000bf8106d8       0x18
 .__vector_offset_BF8106D8_data
                0x00000000bf8106d8       0x18 C:\Users\drewm\AppData\Local\Temp\ccV9qaPM.o

.__vector_offset_BF810874_data
                0x00000000bf810874       0x18
 .__vector_offset_BF810874_data
                0x00000000bf810874       0x18 C:\Users\drewm\AppData\Local\Temp\ccV9qaPM.o

.__vector_offset_BF810858_data
                0x00000000bf810858       0x14
 .__vector_offset_BF810858_data
                0x00000000bf810858       0x14 C:\Users\drewm\AppData\Local\Temp\ccV9qaPM.o

.__vector_offset_BF810840_data
                0x00000000bf810840        0xc
 .__vector_offset_BF810840_data
                0x00000000bf810840        0xc C:\Users\drewm\AppData\Local\Temp\ccV9qaPM.o

.__vector_offset_BF810850_data
                0x00000000bf810850        0x4
 .__vector_offset_BF810850_data
                0x00000000bf810850        0x4 C:\Users\drewm\AppData\Local\Temp\ccV9qaPM.o

.__vector_offset_BF810894_data
                0x00000000bf810894        0x4
 .__vector_offset_BF810894_data
                0x00000000bf810894        0x4 C:\Users\drewm\AppData\Local\Temp\ccV9qaPM.o

.COHERENTBSS$   0x00000000a00003c0     0x5001
 .COHERENTBSS$  0x00000000a00003c0     0x4000 build/default/debug/usb_uart.o
                0x00000000a00003c0                usb_uart_tx_buffer
 .bss.usb_uart_rx_buffer
                0x00000000a00043c0     0x1000 build/default/debug/usb_uart.o
                0x00000000a00043c0                usb_uart_rx_buffer
 .bss.usb_uart_rx_ready
                0x00000000a00053c0        0x1 build/default/debug/usb_uart.o
                0x00000000a00053c0                usb_uart_rx_ready

.data           0x00000000800053d0       0x68
 .data          0x00000000800053d0       0x68 c:/program files/microchip/xc32/v4.30/bin/bin/../../lib/gcc/pic32mx/8.3.1/../../../../pic32mx/lib/fpu64\libc-musl.a(stdout.o)
                0x00000000800053d0                __stdout_used

.data._stdout   0x00000000800003b8        0x4
 .data._stdout  0x00000000800003b8        0x4 c:/program files/microchip/xc32/v4.30/bin/bin/../../lib/gcc/pic32mx/8.3.1/../../../../pic32mx/lib/fpu64\libc-musl.a(stdout.o)
                0x00000000800003b8                _stdout

.bss            0x0000000080005438      0x210
 .bss           0x0000000080005438      0x210 c:/program files/microchip/xc32/v4.30/bin/bin/../../lib/gcc/pic32mx/8.3.1/../../../../pic32mx/lib/fpu64\libc-musl.a(malloc.o)

.bss.gDMAChannelObj
                0x0000000080005648       0x80
 .bss.gDMAChannelObj
                0x0000000080005648       0x80 build/default/debug/_ext/1865161661/plib_dmac.o

.bss            0x00000000800056c8       0x50
 .bss           0x00000000800056c8       0x50 c:/program files/microchip/xc32/v4.30/bin/bin/../../lib/gcc/pic32mx/8.3.1/../../../../pic32mx/lib/fpu64\libc-musl.a(libc.o)
                0x00000000800056c8                __progname_full
                0x00000000800056c8                program_invocation_name
                0x00000000800056cc                program_invocation_short_name
                0x00000000800056cc                __progname
                0x00000000800056d0                __sysinfo
                0x00000000800056d4                __hwcap
                0x00000000800056d8                __libc

.bss.uart3Obj   0x0000000080005718       0x34
 .bss.uart3Obj  0x0000000080005718       0x34 build/default/debug/_ext/1865657120/plib_uart3.o

.bss.i2c5Obj    0x000000008000574c       0x34
 .bss.i2c5Obj   0x000000008000574c       0x34 build/default/debug/_ext/513455433/plib_i2c5_master.o

.bss            0x0000000080005780       0x24
 .bss           0x0000000080005780       0x24 c:/program files/microchip/xc32/v4.30/bin/bin/../../lib/gcc/pic32mx/8.3.1/../../../../pic32mx/lib/fpu64\libpic32.a(sbrk.o)
                0x000000008000579c                _maxbrk
                0x00000000800057a0                _minbrk

.bss.coreTmr    0x00000000800057a4       0x10
 .bss.coreTmr   0x00000000800057a4       0x10 build/default/debug/_ext/1249264884/plib_coretimer.o

.bss            0x00000000800003bc        0x4
 .bss           0x00000000800003bc        0x4 c:/program files/microchip/xc32/v4.30/bin/bin/../../lib/gcc/pic32mx/8.3.1/../../../../pic32mx/lib/fpu64\libc-musl.a(strtok.o)

.bss.errno      0x00000000800057b4        0x4
 .bss.errno     0x00000000800057b4        0x4 c:/program files/microchip/xc32/v4.30/bin/bin/../../lib/gcc/pic32mx/8.3.1/../../../../pic32mx/lib/fpu64\libpic32.a(errno.o)
                0x00000000800057b4                errno

.config_BFC0FFC0.__config_BFC0FFC0
                0x00000000bfc0ffc0        0x4
 .config_BFC0FFC0.__config_BFC0FFC0
                0x00000000bfc0ffc0        0x4 build/default/debug/_ext/1171490990/initialization.o
                0x00000000bfc0ffc0                __config_BFC0FFC0

.config_BFC0FFC4.__config_BFC0FFC4
                0x00000000bfc0ffc4        0x4
 .config_BFC0FFC4.__config_BFC0FFC4
                0x00000000bfc0ffc4        0x4 build/default/debug/_ext/1171490990/initialization.o
                0x00000000bfc0ffc4                __config_BFC0FFC4

.config_BFC0FFC8.__config_BFC0FFC8
                0x00000000bfc0ffc8        0x4
 .config_BFC0FFC8.__config_BFC0FFC8
                0x00000000bfc0ffc8        0x4 build/default/debug/_ext/1171490990/initialization.o
                0x00000000bfc0ffc8                __config_BFC0FFC8

.config_BFC0FFCC.__config_BFC0FFCC
                0x00000000bfc0ffcc        0x4
 .config_BFC0FFCC.__config_BFC0FFCC
                0x00000000bfc0ffcc        0x4 build/default/debug/_ext/1171490990/initialization.o
                0x00000000bfc0ffcc                __config_BFC0FFCC

.config_BFC0FFDC.__config_BFC0FFDC
                0x00000000bfc0ffdc        0x4
 .config_BFC0FFDC.__config_BFC0FFDC
                0x00000000bfc0ffdc        0x4 build/default/debug/_ext/1171490990/initialization.o
                0x00000000bfc0ffdc                __config_BFC0FFDC

.config_BFC0FFF0.__config_BFC0FFF0
                0x00000000bfc0fff0        0x4
 .config_BFC0FFF0.__config_BFC0FFF0
                0x00000000bfc0fff0        0x4 build/default/debug/_ext/1171490990/initialization.o
                0x00000000bfc0fff0                __config_BFC0FFF0

.text.__fmt_fp  0x000000009d000290      0x6cc
 .text.__fmt_fp
                0x000000009d000290      0x6cc c:/program files/microchip/xc32/v4.30/bin/bin/../../lib/gcc/pic32mx/8.3.1/../../../../pic32mx/lib/fpu64\libc-musl.a(__fmt_fp.o)
                0x000000009d000290                __fmt_fp
                0x000000009d000290                __fmt_f_needed

.text.fma       0x000000009d00095c      0x678
 .text.fma      0x000000009d00095c      0x678 c:/program files/microchip/xc32/v4.30/bin/bin/../../lib/gcc/pic32mx/8.3.1/../../../../pic32mx/lib/fpu64\libm-musl.a(fma.o)
                0x000000009d00095c                fma

.text.usbUartAddCommand
                0x000000009d000fd4      0x668
 .text.usbUartAddCommand
                0x000000009d000fd4      0x668 build/default/debug/usb_uart.o
                0x000000009d000fd4                usbUartAddCommand

.text.__fmt_a   0x000000009d00163c      0x624
 .text.__fmt_a  0x000000009d00163c      0x624 c:/program files/microchip/xc32/v4.30/bin/bin/../../lib/gcc/pic32mx/8.3.1/../../../../pic32mx/lib/fpu64\libc-musl.a(__fmt_a.o)
                0x000000009d00163c                __fmt_a
                0x000000009d00163c                __fmt_a_needed

.text.__printf_core
                0x000000009d001c60      0x5a4
 .text.__printf_core
                0x000000009d001c60      0x5a4 c:/program files/microchip/xc32/v4.30/bin/bin/../../lib/gcc/pic32mx/8.3.1/../../../../pic32mx/lib/fpu64\libc-musl.a(__printf_core.o)
                0x000000009d001c60                __printf_core

.text.I2C5_MASTER_InterruptHandler
                0x000000009d002204      0x558
 .text.I2C5_MASTER_InterruptHandler
                0x000000009d002204      0x558 build/default/debug/_ext/513455433/plib_i2c5_master.o
                0x000000009d002204                I2C5_MASTER_InterruptHandler

.dinit          0x000000009d00275c      0x4fc
 .dinit         0x000000009d00275c      0x4fc data_init

.text           0x000000009d002c58      0x774
 .text          0x000000009d002c58      0x3bc c:/program files/microchip/xc32/v4.30/bin/bin/../../lib/gcc/pic32mx/8.3.1/fpu64\libgcc.a(_udivdi3.o)
                0x000000009d002c58                __udivdi3
 .text          0x000000009d003014      0x3b8 c:/program files/microchip/xc32/v4.30/bin/bin/../../lib/gcc/pic32mx/8.3.1/fpu64\libgcc.a(_umoddi3.o)
                0x000000009d003014                __umoddi3

.text.malloc    0x000000009d0033cc      0x298
 .text.malloc   0x000000009d0033cc      0x298 c:/program files/microchip/xc32/v4.30/bin/bin/../../lib/gcc/pic32mx/8.3.1/../../../../pic32mx/lib/fpu64\libc-musl.a(malloc.o)
                0x000000009d0033cc                malloc

.text.__fmt_x   0x000000009d003664      0x200
 .text.__fmt_x  0x000000009d003664      0x200 c:/program files/microchip/xc32/v4.30/bin/bin/../../lib/gcc/pic32mx/8.3.1/../../../../pic32mx/lib/fpu64\libc-musl.a(__fmt_x.o)
                0x000000009d003664                __fmt_x_needed
                0x000000009d003664                __fmt_x

.text.DMA0_Handler
                0x000000009d003864      0x1d0
 .text.DMA0_Handler
                0x000000009d003864      0x1d0 build/default/debug/_ext/1171490990/interrupts.o
                0x000000009d003864                DMA0_Handler

.text.DMA1_Handler
                0x000000009d003a34      0x1d0
 .text.DMA1_Handler
                0x000000009d003a34      0x1d0 build/default/debug/_ext/1171490990/interrupts.o
                0x000000009d003a34                DMA1_Handler

.text.UART3_FAULT_Handler
                0x000000009d003c04      0x1d0
 .text.UART3_FAULT_Handler
                0x000000009d003c04      0x1d0 build/default/debug/_ext/1171490990/interrupts.o
                0x000000009d003c04                UART3_FAULT_Handler

.text.UART3_RX_Handler
                0x000000009d003dd4      0x1d0
 .text.UART3_RX_Handler
                0x000000009d003dd4      0x1d0 build/default/debug/_ext/1171490990/interrupts.o
                0x000000009d003dd4                UART3_RX_Handler

.text.UART3_TX_Handler
                0x000000009d003fa4      0x1d0
 .text.UART3_TX_Handler
                0x000000009d003fa4      0x1d0 build/default/debug/_ext/1171490990/interrupts.o
                0x000000009d003fa4                UART3_TX_Handler

.text.RTCC_Handler
                0x000000009d004174      0x1d0
 .text.RTCC_Handler
                0x000000009d004174      0x1d0 build/default/debug/_ext/1171490990/interrupts.o
                0x000000009d004174                RTCC_Handler

.text.I2C5_BUS_Handler
                0x000000009d004344      0x1d0
 .text.I2C5_BUS_Handler
                0x000000009d004344      0x1d0 build/default/debug/_ext/1171490990/interrupts.o
                0x000000009d004344                I2C5_BUS_Handler

.text.I2C5_MASTER_Handler
                0x000000009d004514      0x1d0
 .text.I2C5_MASTER_Handler
                0x000000009d004514      0x1d0 build/default/debug/_ext/1171490990/interrupts.o
                0x000000009d004514                I2C5_MASTER_Handler

.text.CORE_TIMER_Handler
                0x000000009d0046e4      0x1b8
 .text.CORE_TIMER_Handler
                0x000000009d0046e4      0x1b8 build/default/debug/_ext/1171490990/interrupts.o
                0x000000009d0046e4                CORE_TIMER_Handler

.text           0x000000009d00489c      0x1a0
 .text          0x000000009d00489c      0x1a0 c:/program files/microchip/xc32/v4.30/bin/bin/../../lib/gcc/pic32mx/8.3.1/../../../../pic32mx/lib/fpu64\libpic32.a(strcpy.o)
                0x000000009d00489c                strcpy

.text.free      0x000000009d004a3c      0x198
 .text.free     0x000000009d004a3c      0x198 c:/program files/microchip/xc32/v4.30/bin/bin/../../lib/gcc/pic32mx/8.3.1/../../../../pic32mx/lib/fpu64\libc-musl.a(malloc.o)
                0x000000009d004a3c                free

.text.__pop_int
                0x000000009d004bd4      0x188
 .text.__pop_int
                0x000000009d004bd4      0x188 c:/program files/microchip/xc32/v4.30/bin/bin/../../lib/gcc/pic32mx/8.3.1/../../../../pic32mx/lib/fpu64\libc-musl.a(__pop_int.o)
                0x000000009d004bd4                __pop_int_needed
                0x000000009d004bd4                __pop_int

.text           0x000000009d004d5c      0x2d0
 .text          0x000000009d004d5c      0x168 c:/program files/microchip/xc32/v4.30/bin/bin/../../lib/gcc/pic32mx/8.3.1/../../../../pic32mx/lib/fpu64\libpic32.a(memcpy.o)
                0x000000009d004d5c                memcpy
 .text          0x000000009d004ec4      0x168 c:/program files/microchip/xc32/v4.30/bin/bin/../../lib/gcc/pic32mx/8.3.1/../../../../pic32mx/lib/fpu64\libpic32.a(strlen.o)
                0x000000009d004ec4                strlen

.rodata.helpCommandFunction.str1.4
                0x000000009d00502c      0x164
 .rodata.helpCommandFunction.str1.4
                0x000000009d00502c      0x164 build/default/debug/usb_uart_rx_lookup_table.o

.text._sbrk_init
                0x000000009d005190      0x154
 .text._sbrk_init
                0x000000009d005190      0x154 c:/program files/microchip/xc32/v4.30/bin/bin/../../lib/gcc/pic32mx/8.3.1/../../../../pic32mx/lib/fpu64\libpic32.a(sbrk.o)
                0x000000009d005190                _sbrk_init

.text.__fmt_d   0x000000009d0052e4      0x150
 .text.__fmt_d  0x000000009d0052e4      0x150 c:/program files/microchip/xc32/v4.30/bin/bin/../../lib/gcc/pic32mx/8.3.1/../../../../pic32mx/lib/fpu64\libc-musl.a(__fmt_d.o)
                0x000000009d0052e4                __fmt_d_needed
                0x000000009d0052e4                __fmt_d

.text.DMA1_InterruptHandler
                0x000000009d005434      0x14c
 .text.DMA1_InterruptHandler
                0x000000009d005434      0x14c build/default/debug/_ext/1865161661/plib_dmac.o
                0x000000009d005434                DMA1_InterruptHandler

.text.DMA0_InterruptHandler
                0x000000009d005580      0x148
 .text.DMA0_InterruptHandler
                0x000000009d005580      0x148 build/default/debug/_ext/1865161661/plib_dmac.o
                0x000000009d005580                DMA0_InterruptHandler

.text.helpCommandFunction
                0x000000009d0056c8      0x148
 .text.helpCommandFunction
                0x000000009d0056c8      0x148 build/default/debug/usb_uart_rx_lookup_table.o
                0x000000009d0056c8                helpCommandFunction

.text.usbUartRxLUTInterface
                0x000000009d005810      0x13c
 .text.usbUartRxLUTInterface
                0x000000009d005810      0x13c build/default/debug/usb_uart.o
                0x000000009d005810                usbUartRxLUTInterface

.text.__cvt_u   0x000000009d00594c      0x13c
 .text.__cvt_u  0x000000009d00594c      0x13c c:/program files/microchip/xc32/v4.30/bin/bin/../../lib/gcc/pic32mx/8.3.1/../../../../pic32mx/lib/fpu64\libc-musl.a(__cvt_u.o)
                0x000000009d00594c                __cvt_u

.text.CLK_Initialize
                0x000000009d005a88      0x134
 .text.CLK_Initialize
                0x000000009d005a88      0x134 build/default/debug/_ext/60165520/plib_clk.o
                0x000000009d005a88                CLK_Initialize

.text.UART3_RX_InterruptHandler
                0x000000009d005bbc      0x128
 .text.UART3_RX_InterruptHandler
                0x000000009d005bbc      0x128 build/default/debug/_ext/1865657120/plib_uart3.o
                0x000000009d005bbc                UART3_RX_InterruptHandler

.text.UART3_TX_InterruptHandler
                0x000000009d005ce4      0x128
 .text.UART3_TX_InterruptHandler
                0x000000009d005ce4      0x128 build/default/debug/_ext/1865657120/plib_uart3.o
                0x000000009d005ce4                UART3_TX_InterruptHandler

.text.usbUartTrasmitDmaInitialize
                0x000000009d005e0c      0x120
 .text.usbUartTrasmitDmaInitialize
                0x000000009d005e0c      0x120 build/default/debug/usb_uart.o
                0x000000009d005e0c                usbUartTrasmitDmaInitialize

.text           0x000000009d005f2c      0x120
 .text          0x000000009d005f2c      0x120 c:/program files/microchip/xc32/v4.30/bin/bin/../../lib/gcc/pic32mx/8.3.1/../../../../pic32mx/lib/fpu64\libpic32.a(strcmp.o)
                0x000000009d005f2c                strcmp

.text.GPIO_Initialize
                0x000000009d00604c      0x11c
 .text.GPIO_Initialize
                0x000000009d00604c      0x11c build/default/debug/_ext/1865254177/plib_gpio.o
                0x000000009d00604c                GPIO_Initialize

.text.__pad     0x000000009d006168      0x100
 .text.__pad    0x000000009d006168      0x100 c:/program files/microchip/xc32/v4.30/bin/bin/../../lib/gcc/pic32mx/8.3.1/../../../../pic32mx/lib/fpu64\libc-musl.a(__printf_core.o)
                0x000000009d006168                __pad

.text.usbUartReceiveDmaInitialize
                0x000000009d006268       0xfc
 .text.usbUartReceiveDmaInitialize
                0x000000009d006268       0xfc build/default/debug/usb_uart.o
                0x000000009d006268                usbUartReceiveDmaInitialize

.text.__fmt_o   0x000000009d006364       0xf4
 .text.__fmt_o  0x000000009d006364       0xf4 c:/program files/microchip/xc32/v4.30/bin/bin/../../lib/gcc/pic32mx/8.3.1/../../../../pic32mx/lib/fpu64\libc-musl.a(__fmt_o.o)
                0x000000009d006364                __fmt_o_needed
                0x000000009d006364                __fmt_o

.text.terminalTextAttributes
                0x000000009d000010       0xec
 .text.terminalTextAttributes
                0x000000009d000010       0xec build/default/debug/terminal_control.o
                0x000000009d000010                terminalTextAttributes

.text.__pop_ptr
                0x000000009d006458       0xe4
 .text.__pop_ptr
                0x000000009d006458       0xe4 c:/program files/microchip/xc32/v4.30/bin/bin/../../lib/gcc/pic32mx/8.3.1/../../../../pic32mx/lib/fpu64\libc-musl.a(__pop_ptr.o)
                0x000000009d006458                __pop_ptr_needed
                0x000000009d006458                __pop_ptr

.text.general_exception
                0x000000009d00653c       0xdc
 .text.general_exception
                0x000000009d00653c       0xdc c:/program files/microchip/xc32/v4.30/bin/bin/../../lib/gcc/pic32mx/8.3.1/../../../../pic32mx/lib/fpu64\libpic32.a(general-exception.o)
                0x000000009d00653c                _general_exception_context

.text._cache_err_exception_context
                0x000000009d006618       0xd8
 .text._cache_err_exception_context
                0x000000009d006618       0xd8 c:/program files/microchip/xc32/v4.30/bin/bin/../../lib/gcc/pic32mx/8.3.1/../../../../pic32mx/lib/fpu64\libpic32.a(cache-err-exception.o)
                0x000000009d006618                _cache_err_exception_context

.text.simple_tlb_refill_context
                0x000000009d0066f0       0xd8
 .text.simple_tlb_refill_context
                0x000000009d0066f0       0xd8 c:/program files/microchip/xc32/v4.30/bin/bin/../../lib/gcc/pic32mx/8.3.1/../../../../pic32mx/lib/fpu64\libpic32.a(simple-tlb-refill-exception.o)
                0x000000009d0066f0                _simple_tlb_refill_exception_context

.text.strcspn   0x000000009d0067c8       0xd8
 .text.strcspn  0x000000009d0067c8       0xd8 c:/program files/microchip/xc32/v4.30/bin/bin/../../lib/gcc/pic32mx/8.3.1/../../../../pic32mx/lib/fpu64\libc-musl.a(strcspn.o)
                0x000000009d0067c8                strcspn

.text.strspn    0x000000009d0068a0       0xd8
 .text.strspn   0x000000009d0068a0       0xd8 c:/program files/microchip/xc32/v4.30/bin/bin/../../lib/gcc/pic32mx/8.3.1/../../../../pic32mx/lib/fpu64\libc-musl.a(strspn.o)
                0x000000009d0068a0                strspn

.text.__stdio_close_rw
                0x000000009d006978       0xc0
 .text.__stdio_close_rw
                0x000000009d006978       0xc0 c:/program files/microchip/xc32/v4.30/bin/bin/../../lib/gcc/pic32mx/8.3.1/../../../../pic32mx/lib/fpu64\libc-musl.a(__stdio_close.o)
                0x000000009d006978                __stdio_close_rw

.text.__strchrnul
                0x000000009d006a38       0xc0
 .text.__strchrnul
                0x000000009d006a38       0xc0 c:/program files/microchip/xc32/v4.30/bin/bin/../../lib/gcc/pic32mx/8.3.1/../../../../pic32mx/lib/fpu64\libc-musl.a(strchrnul.o)
                0x000000009d006a38                strchrnul
                0x000000009d006a38                __strchrnul

.tlb.__pic32_tlb_init_ebi_sqi
                0x000000009d006af8       0xbc
 .tlb.__pic32_tlb_init_ebi_sqi
                0x000000009d006af8       0xbc c:/program files/microchip/xc32/v4.30/bin/bin/../../lib/gcc/pic32mx/8.3.1/../../../../pic32mx/lib/fpu64\libpic32.a(pic32_init_tlb_ebi_sqi.o)
                0x000000009d006af8                __pic32_tlb_init_ebi_sqi

.text.__fmt_u   0x000000009d006bb4       0xbc
 .text.__fmt_u  0x000000009d006bb4       0xbc c:/program files/microchip/xc32/v4.30/bin/bin/../../lib/gcc/pic32mx/8.3.1/../../../../pic32mx/lib/fpu64\libc-musl.a(__fmt_u.o)
                0x000000009d006bb4                __fmt_u_needed
                0x000000009d006bb4                __fmt_u

.text.main      0x000000009d006c70       0xb4
 .text.main     0x000000009d006c70       0xb4 build/default/debug/_ext/1360937237/main.o
                0x000000009d006c70                main

.text.RTCC_Initialize
                0x000000009d006d24       0xb4
 .text.RTCC_Initialize
                0x000000009d006d24       0xb4 build/default/debug/_ext/1865585524/plib_rtcc.o
                0x000000009d006d24                RTCC_Initialize

.text.floor     0x000000009d006dd8       0xb4
 .text.floor    0x000000009d006dd8       0xb4 c:/program files/microchip/xc32/v4.30/bin/bin/../../lib/gcc/pic32mx/8.3.1/../../../../pic32mx/lib/fpu64\libm-musl.a(floor.o)
                0x000000009d006dd8                floor

.text._sbrk     0x000000009d006e8c       0xb0
 .text._sbrk    0x000000009d006e8c       0xb0 c:/program files/microchip/xc32/v4.30/bin/bin/../../lib/gcc/pic32mx/8.3.1/../../../../pic32mx/lib/fpu64\libpic32.a(sbrk.o)
                0x000000009d006e8c                _sbrk

.text.unbin     0x000000009d006f3c       0xac
 .text.unbin    0x000000009d006f3c       0xac c:/program files/microchip/xc32/v4.30/bin/bin/../../lib/gcc/pic32mx/8.3.1/../../../../pic32mx/lib/fpu64\libc-musl.a(malloc.o)

.text.CORE_TIMER_InterruptHandler
                0x000000009d006fe8       0xa8
 .text.CORE_TIMER_InterruptHandler
                0x000000009d006fe8       0xa8 build/default/debug/_ext/1249264884/plib_coretimer.o
                0x000000009d006fe8                CORE_TIMER_InterruptHandler

.text           0x000000009d007090       0xa8
 .text          0x000000009d007090       0xa8 c:/program files/microchip/xc32/v4.30/bin/bin/../../lib/gcc/pic32mx/8.3.1/../../../../pic32mx/lib/fpu64\libpic32.a(memset.o)
                0x000000009d007090                memset

.text.strtok    0x000000009d007138       0xa4
 .text.strtok   0x000000009d007138       0xa4 c:/program files/microchip/xc32/v4.30/bin/bin/../../lib/gcc/pic32mx/8.3.1/../../../../pic32mx/lib/fpu64\libc-musl.a(strtok.o)
                0x000000009d007138                strtok

.text.__fmt_s   0x000000009d0071dc       0xa4
 .text.__fmt_s  0x000000009d0071dc       0xa4 c:/program files/microchip/xc32/v4.30/bin/bin/../../lib/gcc/pic32mx/8.3.1/../../../../pic32mx/lib/fpu64\libc-musl.a(__fmt_s.o)
                0x000000009d0071dc                __fmt_0_needed
                0x000000009d0071dc                __fmt_s_needed
                0x000000009d0071dc                __fmt_s

.text.DMAC_Initialize
                0x000000009d007280       0x9c
 .text.DMAC_Initialize
                0x000000009d007280       0x9c build/default/debug/_ext/1865161661/plib_dmac.o
                0x000000009d007280                DMAC_Initialize

.text.usbUartInitialize
                0x000000009d00731c       0x9c
 .text.usbUartInitialize
                0x000000009d00731c       0x9c build/default/debug/usb_uart.o
                0x000000009d00731c                usbUartInitialize

.rodata.usbUartHashTableInitialize.str1.4
                0x000000009d0073b8       0x98
 .rodata.usbUartHashTableInitialize.str1.4
                0x000000009d0073b8       0x98 build/default/debug/usb_uart_rx_lookup_table.o

.text.EVIC_Initialize
                0x000000009d007450       0x90
 .text.EVIC_Initialize
                0x000000009d007450       0x90 build/default/debug/_ext/1865200349/plib_evic.o
                0x000000009d007450                EVIC_Initialize

.text.SYS_Initialize
                0x000000009d0074e0       0x90
 .text.SYS_Initialize
                0x000000009d0074e0       0x90 build/default/debug/_ext/1171490990/initialization.o
                0x000000009d0074e0                SYS_Initialize

.text.__out     0x000000009d007570       0x8c
 .text.__out    0x000000009d007570       0x8c c:/program files/microchip/xc32/v4.30/bin/bin/../../lib/gcc/pic32mx/8.3.1/../../../../pic32mx/lib/fpu64\libc-musl.a(__out.o)
                0x000000009d007570                __out_needed
                0x000000009d007570                __out

.text.normalize
                0x000000009d0075fc       0x8c
 .text.normalize
                0x000000009d0075fc       0x8c c:/program files/microchip/xc32/v4.30/bin/bin/../../lib/gcc/pic32mx/8.3.1/../../../../pic32mx/lib/fpu64\libm-musl.a(fma.o)

.text.scalbn    0x000000009d007688       0x8c
 .text.scalbn   0x000000009d007688       0x8c c:/program files/microchip/xc32/v4.30/bin/bin/../../lib/gcc/pic32mx/8.3.1/../../../../pic32mx/lib/fpu64\libm-musl.a(scalbn.o)
                0x000000009d007688                scalbn

.text.UART3_Initialize
                0x000000009d007714       0x88
 .text.UART3_Initialize
                0x000000009d007714       0x88 build/default/debug/_ext/1865657120/plib_uart3.o
                0x000000009d007714                UART3_Initialize

.text           0x000000009d00779c       0x7c
 .text          0x000000009d00779c       0x7c c:/program files/microchip/xc32/v4.30/bin/bin/../../lib/gcc/pic32mx/8.3.1/../../../../pic32mx/lib/fpu64\libpic32.a(pic32_data_init_core.o)
                0x000000009d00779c                __dinit_copy_val_data
                0x000000009d00779c                __dinit_decompress
                0x000000009d00779c                __dinit_copy_emb
                0x000000009d0077a4                __pic32_data_init

.text.atoi      0x000000009d007818       0x7c
 .text.atoi     0x000000009d007818       0x7c c:/program files/microchip/xc32/v4.30/bin/bin/../../lib/gcc/pic32mx/8.3.1/../../../../pic32mx/lib/fpu64\libc-musl.a(atoi.o)
                0x000000009d007818                atoi

.text.UART3_ErrorClear
                0x000000009d007894       0x74
 .text.UART3_ErrorClear
                0x000000009d007894       0x74 build/default/debug/_ext/1865657120/plib_uart3.o

.text.alloc_rev
                0x000000009d007908       0x74
 .text.alloc_rev
                0x000000009d007908       0x74 c:/program files/microchip/xc32/v4.30/bin/bin/../../lib/gcc/pic32mx/8.3.1/../../../../pic32mx/lib/fpu64\libc-musl.a(malloc.o)

.text.UART3_FAULT_InterruptHandler
                0x000000009d000110       0x70
 .text.UART3_FAULT_InterruptHandler
                0x000000009d000110       0x70 build/default/debug/_ext/1865657120/plib_uart3.o
                0x000000009d000110                UART3_FAULT_InterruptHandler

.text.alloc_fwd
                0x000000009d000190       0x70
 .text.alloc_fwd
                0x000000009d000190       0x70 c:/program files/microchip/xc32/v4.30/bin/bin/../../lib/gcc/pic32mx/8.3.1/../../../../pic32mx/lib/fpu64\libc-musl.a(malloc.o)

.text.CORETIMER_Start
                0x000000009d00797c       0x6c
 .text.CORETIMER_Start
                0x000000009d00797c       0x6c build/default/debug/_ext/1249264884/plib_coretimer.o
                0x000000009d00797c                CORETIMER_Start

.text.I2C5_Initialize
                0x000000009d0079e8       0x6c
 .text.I2C5_Initialize
                0x000000009d0079e8       0x6c build/default/debug/_ext/513455433/plib_i2c5_master.o
                0x000000009d0079e8                I2C5_Initialize

.text.I2C5_BUS_InterruptHandler
                0x000000009d007a54       0x6c
 .text.I2C5_BUS_InterruptHandler
                0x000000009d007a54       0x6c build/default/debug/_ext/513455433/plib_i2c5_master.o
                0x000000009d007a54                I2C5_BUS_InterruptHandler

.text.a_clz_64  0x000000009d007ac0       0x6c
 .text.a_clz_64
                0x000000009d007ac0       0x6c c:/program files/microchip/xc32/v4.30/bin/bin/../../lib/gcc/pic32mx/8.3.1/../../../../pic32mx/lib/fpu64\libm-musl.a(fma.o)

.text.HEARTBEAT_TIMER_Handler
                0x000000009d007b2c       0x68
 .text.HEARTBEAT_TIMER_Handler
                0x000000009d007b2c       0x68 build/default/debug/heartbeat_timer.o
                0x000000009d007b2c                HEARTBEAT_TIMER_Handler

.text.usbUartHashTableInitialize
                0x000000009d007b94       0x68
 .text.usbUartHashTableInitialize
                0x000000009d007b94       0x68 build/default/debug/usb_uart_rx_lookup_table.o
                0x000000009d007b94                usbUartHashTableInitialize

.text.bin_index
                0x000000009d007bfc       0x60
 .text.bin_index
                0x000000009d007bfc       0x60 c:/program files/microchip/xc32/v4.30/bin/bin/../../lib/gcc/pic32mx/8.3.1/../../../../pic32mx/lib/fpu64\libc-musl.a(malloc.o)

.text.fwrite    0x000000009d007c5c       0x60
 .text.fwrite   0x000000009d007c5c       0x60 c:/program files/microchip/xc32/v4.30/bin/bin/../../lib/gcc/pic32mx/8.3.1/../../../../pic32mx/lib/fpu64\libc-musl.a(fwrite.o)
                0x000000009d007c5c                fwrite
                0x000000009d007c5c                fwrite_unlocked

.text.__putc_unbuffered
                0x000000009d007cbc       0x60
 .text.__putc_unbuffered
                0x000000009d007cbc       0x60 c:/program files/microchip/xc32/v4.30/bin/bin/../../lib/gcc/pic32mx/8.3.1/../../../../pic32mx/lib/fpu64\libc-musl.a(putc.o)
                0x000000009d007cbc                __putc
                0x000000009d007cbc                __putc_unbuffered

.text.libc_exit_fini
                0x000000009d007d1c       0x5c
 .text.libc_exit_fini
                0x000000009d007d1c       0x5c c:/program files/microchip/xc32/v4.30/bin/bin/../../lib/gcc/pic32mx/8.3.1/../../../../pic32mx/lib/fpu64\libc-musl.a(exit.o)
                0x000000009d007d1c                __libc_exit_fini
                0x000000009d007d1c                __libc_fini_array

.rodata         0x000000009d007d78       0x5c
 .rodata        0x000000009d007d78       0x5c c:/program files/microchip/xc32/v4.30/bin/bin/../../lib/gcc/pic32mx/8.3.1/../../../../pic32mx/lib/fpu64\libc-musl.a(malloc.o)

.text.fputs     0x000000009d007dd4       0x5c
 .text.fputs    0x000000009d007dd4       0x5c c:/program files/microchip/xc32/v4.30/bin/bin/../../lib/gcc/pic32mx/8.3.1/../../../../pic32mx/lib/fpu64\libc-musl.a(fputs.o)
                0x000000009d007dd4                fputs_unlocked
                0x000000009d007dd4                fputs

.text.usbUartTxDmaHandler
                0x000000009d007e30       0x58
 .text.usbUartTxDmaHandler
                0x000000009d007e30       0x58 build/default/debug/usb_uart.o
                0x000000009d007e30                usbUartTxDmaHandler

.text.adjust_size
                0x000000009d007e88       0x58
 .text.adjust_size
                0x000000009d007e88       0x58 c:/program files/microchip/xc32/v4.30/bin/bin/../../lib/gcc/pic32mx/8.3.1/../../../../pic32mx/lib/fpu64\libc-musl.a(malloc.o)

.text.trim      0x000000009d007ee0       0x58
 .text.trim     0x000000009d007ee0       0x58 c:/program files/microchip/xc32/v4.30/bin/bin/../../lib/gcc/pic32mx/8.3.1/../../../../pic32mx/lib/fpu64\libc-musl.a(malloc.o)

.text.__fmt_state
                0x000000009d007f38       0x58
 .text.__fmt_state
                0x000000009d007f38       0x58 c:/program files/microchip/xc32/v4.30/bin/bin/../../lib/gcc/pic32mx/8.3.1/../../../../pic32mx/lib/fpu64\libc-musl.a(__printf_core.o)
                0x000000009d007f38                __fmt_state

.text.main_entry
                0x000000009d007f90       0x54
 .text.main_entry
                0x000000009d007f90       0x54 C:\Users\drewm\AppData\Local\Temp\ccEOzkaJ.o
                0x000000009d007fc4                __crt0_exit

.text.SYS_RESET_SoftwareReset
                0x000000009d007fe4       0x4c
 .text.SYS_RESET_SoftwareReset
                0x000000009d007fe4       0x4c build/default/debug/_ext/1000052432/sys_reset.o
                0x000000009d007fe4                SYS_RESET_SoftwareReset

.text.puts      0x000000009d008030       0x4c
 .text.puts     0x000000009d008030       0x4c c:/program files/microchip/xc32/v4.30/bin/bin/../../lib/gcc/pic32mx/8.3.1/../../../../pic32mx/lib/fpu64\libc-musl.a(puts.o)
                0x000000009d008030                puts

.text.stpncpy   0x000000009d00807c       0x4c
 .text.stpncpy  0x000000009d00807c       0x4c c:/program files/microchip/xc32/v4.30/bin/bin/../../lib/gcc/pic32mx/8.3.1/../../../../pic32mx/lib/fpu64\libc-musl.a(stpncpy.o)
                0x000000009d00807c                __stpncpy
                0x000000009d00807c                stpncpy

.text.DMAC_ChannelPatternMatchSetup
                0x000000009d0080c8       0x48
 .text.DMAC_ChannelPatternMatchSetup
                0x000000009d0080c8       0x48 build/default/debug/_ext/1865161661/plib_dmac.o
                0x000000009d0080c8                DMAC_ChannelPatternMatchSetup

.text.__pop_float
                0x000000009d008110       0x48
 .text.__pop_float
                0x000000009d008110       0x48 c:/program files/microchip/xc32/v4.30/bin/bin/../../lib/gcc/pic32mx/8.3.1/../../../../pic32mx/lib/fpu64\libc-musl.a(__pop_float.o)
                0x000000009d008110                __pop_float_needed
                0x000000009d008110                __pop_float

.text.CORETIMER_Initialize
                0x000000009d008158       0x44
 .text.CORETIMER_Initialize
                0x000000009d008158       0x44 build/default/debug/_ext/1249264884/plib_coretimer.o
                0x000000009d008158                CORETIMER_Initialize

.text           0x000000009d00819c       0x44
 .text          0x000000009d00819c       0x44 c:/program files/microchip/xc32/v4.30/bin/bin/../../lib/gcc/pic32mx/8.3.1/../../../../pic32mx/lib/fpu64\pic32_software_reset.o
                0x000000009d00819c                __pic32_software_reset

.text.RTCC_InterruptHandler
                0x000000009d0081e0       0x3c
 .text.RTCC_InterruptHandler
                0x000000009d0081e0       0x3c build/default/debug/_ext/1865585524/plib_rtcc.o
                0x000000009d0081e0                RTCC_InterruptHandler

.text.strcomp   0x000000009d00821c       0x3c
 .text.strcomp  0x000000009d00821c       0x3c build/default/debug/usb_uart.o
                0x000000009d00821c                strcomp

.text.__expand_heap
                0x000000009d008258       0x3c
 .text.__expand_heap
                0x000000009d008258       0x3c c:/program files/microchip/xc32/v4.30/bin/bin/../../lib/gcc/pic32mx/8.3.1/../../../../pic32mx/lib/fpu64\libc-musl.a(expand_heap.o)
                0x000000009d008258                __expand_heap

.text.printf    0x000000009d008294       0x3c
 .text.printf   0x000000009d008294       0x3c c:/program files/microchip/xc32/v4.30/bin/bin/../../lib/gcc/pic32mx/8.3.1/../../../../pic32mx/lib/fpu64\libc-musl.a(printf.o)
                0x000000009d008294                printf

.text.vfprintf  0x000000009d0082d0       0x3c
 .text.vfprintf
                0x000000009d0082d0       0x3c c:/program files/microchip/xc32/v4.30/bin/bin/../../lib/gcc/pic32mx/8.3.1/../../../../pic32mx/lib/fpu64\libc-musl.a(vfprintf.o)
                0x000000009d0082d0                vfprintf

.text           0x000000009d00830c       0x78
 .text          0x000000009d00830c       0x3c c:/program files/microchip/xc32/v4.30/bin/bin/../../lib/gcc/pic32mx/8.3.1/fpu64\libgcc.a(_lshrdi3.o)
                0x000000009d00830c                __lshrdi3
 .text          0x000000009d008348       0x3c c:/program files/microchip/xc32/v4.30/bin/bin/../../lib/gcc/pic32mx/8.3.1/fpu64\libgcc.a(_ashldi3.o)
                0x000000009d008348                __ashldi3

.text.strcat    0x000000009d008384       0x38
 .text.strcat   0x000000009d008384       0x38 c:/program files/microchip/xc32/v4.30/bin/bin/../../lib/gcc/pic32mx/8.3.1/../../../../pic32mx/lib/fpu64\libc-musl.a(strcat.o)
                0x000000009d008384                strcat

.text.usbUartRxDmaHandler
                0x000000009d0083bc       0x34
 .text.usbUartRxDmaHandler
                0x000000009d0083bc       0x34 build/default/debug/usb_uart.o
                0x000000009d0083bc                usbUartRxDmaHandler

.text.lock_bin  0x000000009d0083f0       0x34
 .text.lock_bin
                0x000000009d0083f0       0x34 c:/program files/microchip/xc32/v4.30/bin/bin/../../lib/gcc/pic32mx/8.3.1/../../../../pic32mx/lib/fpu64\libc-musl.a(malloc.o)

.text.exit      0x000000009d008424       0x2c
 .text.exit     0x000000009d008424       0x2c c:/program files/microchip/xc32/v4.30/bin/bin/../../lib/gcc/pic32mx/8.3.1/../../../../pic32mx/lib/fpu64\libc-musl.a(exit.o)
                0x000000009d008424                exit

.text._stub_sbd_memlayout
                0x000000009d008450       0x2c
 .text._stub_sbd_memlayout
                0x000000009d008450       0x2c c:/program files/microchip/xc32/v4.30/bin/bin/../../lib/gcc/pic32mx/8.3.1/../../../../pic32mx/lib/fpu64\libpic32.a(sbrk.o)
                0x000000009d008450                _sbd_memlayout
                0x000000009d008450                _stub_sbd_memlayout

.text._general_exception_handler
                0x000000009d00847c       0x28
 .text._general_exception_handler
                0x000000009d00847c       0x28 build/default/debug/_ext/1171490990/exceptions.o
                0x000000009d00847c                _general_exception_handler

.text._bootstrap_exception_handler
                0x000000009d0084a4       0x28
 .text._bootstrap_exception_handler
                0x000000009d0084a4       0x28 build/default/debug/_ext/1171490990/exceptions.o
                0x000000009d0084a4                _bootstrap_exception_handler

.text._cache_err_exception_handler
                0x000000009d0084cc       0x28
 .text._cache_err_exception_handler
                0x000000009d0084cc       0x28 build/default/debug/_ext/1171490990/exceptions.o
                0x000000009d0084cc                _cache_err_exception_handler

.text._simple_tlb_refill_exception_handler
                0x000000009d0084f4       0x28
 .text._simple_tlb_refill_exception_handler
                0x000000009d0084f4       0x28 build/default/debug/_ext/1171490990/exceptions.o
                0x000000009d0084f4                _simple_tlb_refill_exception_handler

.text.strncpy   0x000000009d00851c       0x28
 .text.strncpy  0x000000009d00851c       0x28 c:/program files/microchip/xc32/v4.30/bin/bin/../../lib/gcc/pic32mx/8.3.1/../../../../pic32mx/lib/fpu64\libc-musl.a(strncpy.o)
                0x000000009d00851c                strncpy

.rodata.cst8    0x000000009d008548       0x28
 .rodata.cst8   0x000000009d008548       0x28 c:/program files/microchip/xc32/v4.30/bin/bin/../../lib/gcc/pic32mx/8.3.1/../../../../pic32mx/lib/fpu64\libc-musl.a(__fmt_a.o)

.text.clearCommand
                0x000000009d008570       0x24
 .text.clearCommand
                0x000000009d008570       0x24 build/default/debug/usb_uart_rx_lookup_table.o
                0x000000009d008570                clearCommand

.text.DMAC_ChannelCallbackRegister
                0x000000009d008594       0x20
 .text.DMAC_ChannelCallbackRegister
                0x000000009d008594       0x20 build/default/debug/_ext/1865161661/plib_dmac.o
                0x000000009d008594                DMAC_ChannelCallbackRegister

.rodata.usbUartRxLUTInterface.str1.4
                0x000000009d0085b4       0x20
 .rodata.usbUartRxLUTInterface.str1.4
                0x000000009d0085b4       0x20 build/default/debug/usb_uart.o

.text.terminalClearScreen
                0x000000009d0085d4       0x20
 .text.terminalClearScreen
                0x000000009d0085d4       0x20 build/default/debug/terminal_control.o
                0x000000009d0085d4                terminalClearScreen

.text.terminalSetCursorHome
                0x000000009d0085f4       0x20
 .text.terminalSetCursorHome
                0x000000009d0085f4       0x20 build/default/debug/terminal_control.o
                0x000000009d0085f4                terminalSetCursorHome

.text.terminalTextAttributesReset
                0x000000009d008614       0x20
 .text.terminalTextAttributesReset
                0x000000009d008614       0x20 build/default/debug/terminal_control.o
                0x000000009d008614                terminalTextAttributesReset

.text.__fwrite_min
                0x000000009d008634       0x40
 .text.__fwrite_min
                0x000000009d008634       0x20 c:/program files/microchip/xc32/v4.30/bin/bin/../../lib/gcc/pic32mx/8.3.1/../../../../pic32mx/lib/fpu64\libc-musl.a(fwrite.o)
                0x000000009d008634                __fwrite
 .text.__fwrite_min
                0x000000009d008654       0x20 c:/program files/microchip/xc32/v4.30/bin/bin/../../lib/gcc/pic32mx/8.3.1/../../../../pic32mx/lib/fpu64\libc-musl.a(__out.o)
                0x000000009d008654                __stdio_write_unbuffered
                0x000000009d008654                __stdio_write

.rodata.cst8    0x000000009d008678       0x40
 .rodata.cst8   0x000000009d008678       0x20 c:/program files/microchip/xc32/v4.30/bin/bin/../../lib/gcc/pic32mx/8.3.1/../../../../pic32mx/lib/fpu64\libc-musl.a(__fmt_fp.o)
 .rodata.cst8   0x000000009d008698       0x20 c:/program files/microchip/xc32/v4.30/bin/bin/../../lib/gcc/pic32mx/8.3.1/../../../../pic32mx/lib/fpu64\libm-musl.a(fma.o)

.text           0x000000009d0086b8       0x20
 .text          0x000000009d0086b8       0x20 c:/program files/microchip/xc32/v4.30/bin/bin/../../lib/gcc/pic32mx/8.3.1/../../../../pic32mx/lib/fpu64\libpic32.a(pic32_data_init_copy.o)
                0x000000009d0086b8                __dinit_copy
                0x000000009d0086b8                __dinit_copy_needed

.text.WDT_Enable
                0x000000009d0086d8       0x1c
 .text.WDT_Enable
                0x000000009d0086d8       0x1c build/default/debug/_ext/60184501/plib_wdt.o
                0x000000009d0086d8                WDT_Enable

.text.resetCommand
                0x000000009d0086f4       0x1c
 .text.resetCommand
                0x000000009d0086f4       0x1c build/default/debug/usb_uart_rx_lookup_table.o
                0x000000009d0086f4                resetCommand

.text.putc      0x000000009d008710       0x1c
 .text.putc     0x000000009d008710       0x1c c:/program files/microchip/xc32/v4.30/bin/bin/../../lib/gcc/pic32mx/8.3.1/../../../../pic32mx/lib/fpu64\libc-musl.a(putc.o)
                0x000000009d008710                fputc
                0x000000009d008710                putc_unlocked
                0x000000009d008710                putc
                0x000000009d008710                _IO_putc

.text.tolower   0x000000009d00872c       0x1c
 .text.tolower  0x000000009d00872c       0x1c c:/program files/microchip/xc32/v4.30/bin/bin/../../lib/gcc/pic32mx/8.3.1/../../../../pic32mx/lib/fpu64\libc-musl.a(tolower.o)
                0x000000009d00872c                tolower

.text.toupper   0x000000009d008748       0x1c
 .text.toupper  0x000000009d008748       0x1c c:/program files/microchip/xc32/v4.30/bin/bin/../../lib/gcc/pic32mx/8.3.1/../../../../pic32mx/lib/fpu64\libc-musl.a(toupper.o)
                0x000000009d008748                toupper

.MIPS.abiflags  0x000000009d008768       0x18
 .MIPS.abiflags
                0x000000009d008768       0x18 c:/program files/microchip/xc32/v4.30/bin/bin/../../lib/gcc/pic32mx/8.3.1/../../../../pic32mx/lib/fpu64\software-debug-break.o

.text.CORETIMER_CallbackSet
                0x000000009d008780       0x18
 .text.CORETIMER_CallbackSet
                0x000000009d008780       0x18 build/default/debug/_ext/1249264884/plib_coretimer.o
                0x000000009d008780                CORETIMER_CallbackSet

.text.WDT_Clear
                0x000000009d008798       0x18
 .text.WDT_Clear
                0x000000009d008798       0x18 build/default/debug/_ext/60184501/plib_wdt.o
                0x000000009d008798                WDT_Clear

.text           0x000000009d0087b0       0x18
 .text          0x000000009d0087b0       0x18 c:/program files/microchip/xc32/v4.30/bin/bin/../../lib/gcc/pic32mx/8.3.1/../../../../pic32mx/lib/fpu64\libpic32.a(default-nmi-handler.o)
                0x000000009d0087b0                _nmi_handler

.rodata         0x000000009d0087c8       0x18
 .rodata        0x000000009d0087c8       0x18 c:/program files/microchip/xc32/v4.30/bin/bin/../../lib/gcc/pic32mx/8.3.1/../../../../pic32mx/lib/fpu64\libc-musl.a(__printf_core.o)

.rodata.cst8    0x000000009d0087e0       0x18
 .rodata.cst8   0x000000009d0087e0       0x18 c:/program files/microchip/xc32/v4.30/bin/bin/../../lib/gcc/pic32mx/8.3.1/../../../../pic32mx/lib/fpu64\libm-musl.a(floor.o)

.text           0x000000009d0087f8       0x18
 .text          0x000000009d0087f8       0x18 c:/program files/microchip/xc32/v4.30/bin/bin/../../lib/gcc/pic32mx/8.3.1/../../../../pic32mx/lib/fpu64\libpic32.a(pic32_data_init_clear.o)
                0x000000009d0087f8                __dinit_clear_needed
                0x000000009d0087f8                __dinit_clear

.rodata         0x000000009d008810       0x14
 .rodata        0x000000009d008810       0x14 c:/program files/microchip/xc32/v4.30/bin/bin/../../lib/gcc/pic32mx/8.3.1/../../../../pic32mx/lib/fpu64\libpic32.a(pic32_data_init_core.o)

.rodata.main.str1.4
                0x000000009d008824       0x10
 .rodata.main.str1.4
                0x000000009d008824       0x10 build/default/debug/_ext/1360937237/main.o

.text._Exit     0x000000009d008834       0x10
 .text._Exit    0x000000009d008834       0x10 c:/program files/microchip/xc32/v4.30/bin/bin/../../lib/gcc/pic32mx/8.3.1/../../../../pic32mx/lib/fpu64\libc-musl.a(_Exit.o)
                0x000000009d008834                _Exit

.rodata.str1.4  0x000000009d008844       0x20
 .rodata.str1.4
                0x000000009d008844       0x10 c:/program files/microchip/xc32/v4.30/bin/bin/../../lib/gcc/pic32mx/8.3.1/../../../../pic32mx/lib/fpu64\libc-musl.a(__fmt_a.o)
 .rodata.str1.4
                0x000000009d008854       0x10 c:/program files/microchip/xc32/v4.30/bin/bin/../../lib/gcc/pic32mx/8.3.1/../../../../pic32mx/lib/fpu64\libc-musl.a(__fmt_fp.o)

.rodata.cst8    0x000000009d008868       0x10
 .rodata.cst8   0x000000009d008868       0x10 c:/program files/microchip/xc32/v4.30/bin/bin/../../lib/gcc/pic32mx/8.3.1/../../../../pic32mx/lib/fpu64\libm-musl.a(scalbn.o)

.text.__exception_handler_break
                0x000000009d008878        0xc
 .text.__exception_handler_break
                0x000000009d008878        0xc c:/program files/microchip/xc32/v4.30/bin/bin/../../lib/gcc/pic32mx/8.3.1/../../../../pic32mx/lib/fpu64\software-debug-break.o
                0x000000009d008878                __exception_handler_break

.rodata.terminalTextAttributesReset.str1.4
                0x000000009d008884        0xc
 .rodata.terminalTextAttributesReset.str1.4
                0x000000009d008884        0xc build/default/debug/terminal_control.o

.rodata.str1.4  0x000000009d008890        0xc
 .rodata.str1.4
                0x000000009d008890        0xc c:/program files/microchip/xc32/v4.30/bin/bin/../../lib/gcc/pic32mx/8.3.1/../../../../pic32mx/lib/fpu64\libc-musl.a(__printf_core.o)

.text.write     0x000000009d00889c        0x8
 .text.write    0x000000009d00889c        0x8 build/default/debug/_ext/163028504/xc32_monitor.o
                0x000000009d00889c                write

.text.SYS_Tasks
                0x000000009d0088a4        0x8
 .text.SYS_Tasks
                0x000000009d0088a4        0x8 build/default/debug/_ext/1171490990/tasks.o
                0x000000009d0088a4                SYS_Tasks

.rodata.terminalClearScreen.str1.4
                0x000000009d0088ac        0x8
 .rodata.terminalClearScreen.str1.4
                0x000000009d0088ac        0x8 build/default/debug/terminal_control.o

.text._on_reset
                0x000000009d0088b4        0x8
 .text._on_reset
                0x000000009d0088b4        0x8 c:/program files/microchip/xc32/v4.30/bin/bin/../../lib/gcc/pic32mx/8.3.1/../../../../pic32mx/lib/fpu64\libpic32.a(default-on-reset.o)
                0x000000009d0088b4                _on_reset

.text._on_bootstrap
                0x000000009d0088bc        0x8
 .text._on_bootstrap
                0x000000009d0088bc        0x8 c:/program files/microchip/xc32/v4.30/bin/bin/../../lib/gcc/pic32mx/8.3.1/../../../../pic32mx/lib/fpu64\libpic32.a(default-on-bootstrap.o)
                0x000000009d0088bc                _on_bootstrap

.text.dummy     0x000000009d0088c4        0x8
 .text.dummy    0x000000009d0088c4        0x8 c:/program files/microchip/xc32/v4.30/bin/bin/../../lib/gcc/pic32mx/8.3.1/../../../../pic32mx/lib/fpu64\libc-musl.a(exit.o)
                0x000000009d0088c4                __funcs_on_exit
                0x000000009d0088c4                __stdio_exit
                0x000000009d0088c4                _fini

.text.__dummy   0x000000009d0088cc        0x8
 .text.__dummy  0x000000009d0088cc        0x8 c:/program files/microchip/xc32/v4.30/bin/bin/../../lib/gcc/pic32mx/8.3.1/../../../../pic32mx/lib/fpu64\libc-musl.a(stdout.o)
                0x000000009d0088cc                __stdio_seek

.text._exit     0x000000009d0088d4        0x8
 .text._exit    0x000000009d0088d4        0x8 c:/program files/microchip/xc32/v4.30/bin/bin/../../lib/gcc/pic32mx/8.3.1/../../../../pic32mx/lib/fpu64\libpic32.a(_exit.o)
                0x000000009d0088d4                _exit

.text.lseek     0x000000009d0088dc        0x8
 .text.lseek    0x000000009d0088dc        0x8 c:/program files/microchip/xc32/v4.30/bin/bin/../../lib/gcc/pic32mx/8.3.1/../../../../pic32mx/lib/fpu64\libpic32.a(lseek.o)
                0x000000009d0088dc                lseek

.text.close     0x000000009d0088e4        0x8
 .text.close    0x000000009d0088e4        0x8 c:/program files/microchip/xc32/v4.30/bin/bin/../../lib/gcc/pic32mx/8.3.1/../../../../pic32mx/lib/fpu64\libpic32.a(close.o)
                0x000000009d0088e4                close

.rodata.terminalSetCursorHome.str1.4
                0x000000009d0000fc        0x4
 .rodata.terminalSetCursorHome.str1.4
                0x000000009d0000fc        0x4 build/default/debug/terminal_control.o

.rodata.terminalTextAttributes.str1.4
                0x000000009d008544        0x4
 .rodata.terminalTextAttributes.str1.4
                0x000000009d008544        0x4 build/default/debug/terminal_control.o
